---
triple:          'arm64-apple-darwin'
binary-path:     main
relocations:
  - { offsetInCU: 0x52, offset: 0x52, size: 0x8, addend: 0x0, symName: __ZL6prompt, symObjAddr: 0x3A830, symBinAddr: 0x100010000, symSize: 0x0 }
  - { offsetInCU: 0x4D97, offset: 0x4D97, size: 0x8, addend: 0x0, symName: __ZNSt3__16copy_nB7v160006IPKcmPcEENS_9enable_ifIXsr33__is_cpp17_random_access_iteratorIT_EE5valueET1_E4typeES5_T0_S6_, symObjAddr: 0x3F64, symBinAddr: 0x100007920, symSize: 0x44 }
  - { offsetInCU: 0x53B5, offset: 0x53B5, size: 0x8, addend: 0x0, symName: __ZNSt3__124__put_character_sequenceB7v160006IcNS_11char_traitsIcEEEERNS_13basic_ostreamIT_T0_EES7_PKS4_m, symObjAddr: 0x55C4, symBinAddr: 0x100008F80, symSize: 0x1EC }
  - { offsetInCU: 0x719F, offset: 0x719F, size: 0x8, addend: 0x0, symName: __ZNSt3__1neB7v160006IP8VariableEEbRKNS_11__wrap_iterIT_EES7_, symObjAddr: 0x200, symBinAddr: 0x100003BBC, symSize: 0x34 }
  - { offsetInCU: 0x71E2, offset: 0x71E2, size: 0x8, addend: 0x0, symName: __ZNSt3__1eqB7v160006INS_9allocatorIcEEEEbRKNS_12basic_stringIcNS_11char_traitsIcEET_EES9_, symObjAddr: 0x24C, symBinAddr: 0x100003C08, symSize: 0x148 }
  - { offsetInCU: 0x7255, offset: 0x7255, size: 0x8, addend: 0x0, symName: __ZNSt3__1rsB7v160006IcNS_11char_traitsIcEEEERNS_13basic_istreamIT_T0_EES7_RS4_, symObjAddr: 0x67C, symBinAddr: 0x100004038, symSize: 0x18C }
  - { offsetInCU: 0x7861, offset: 0x7861, size: 0x8, addend: 0x0, symName: __ZNSt3__1eqB7v160006IcNS_11char_traitsIcEENS_9allocatorIcEEEEbRKNS_12basic_stringIT_T0_T1_EEPKS6_, symObjAddr: 0xFA0, symBinAddr: 0x10000495C, symSize: 0xAC }
  - { offsetInCU: 0x78C8, offset: 0x78C8, size: 0x8, addend: 0x0, symName: __ZNSt3__1lsB7v160006IcNS_11char_traitsIcEENS_9allocatorIcEEEERNS_13basic_ostreamIT_T0_EES9_RKNS_12basic_stringIS6_S7_T1_EE, symObjAddr: 0x22B4, symBinAddr: 0x100005C70, symSize: 0x4C }
  - { offsetInCU: 0x7920, offset: 0x7920, size: 0x8, addend: 0x0, symName: __ZNSt3__1lsB7v160006INS_11char_traitsIcEEEERNS_13basic_ostreamIcT_EES6_PKc, symObjAddr: 0x2358, symBinAddr: 0x100005D14, symSize: 0x48 }
  - { offsetInCU: 0x7966, offset: 0x7966, size: 0x8, addend: 0x0, symName: __ZNSt3__119__debug_db_insert_cB7v160006INS_12basic_stringIcNS_11char_traitsIcEENS_9allocatorIcEEEEEEvPT_, symObjAddr: 0x28C8, symBinAddr: 0x100006284, symSize: 0x10 }
  - { offsetInCU: 0x7997, offset: 0x7997, size: 0x8, addend: 0x0, symName: __ZNSt3__118__constexpr_strlenB7v160006EPKc, symObjAddr: 0x2994, symBinAddr: 0x100006350, symSize: 0x24 }
  - { offsetInCU: 0x79C3, offset: 0x79C3, size: 0x8, addend: 0x0, symName: __ZNSt3__119__debug_db_insert_cB7v160006INS_6vectorI8VariableNS_9allocatorIS2_EEEEEEvPT_, symObjAddr: 0x2AFC, symBinAddr: 0x1000064B8, symSize: 0x10 }
  - { offsetInCU: 0x79F4, offset: 0x79F4, size: 0x8, addend: 0x0, symName: __ZNSt3__118__debug_db_erase_cB7v160006INS_6vectorI8VariableNS_9allocatorIS2_EEEEEEvPT_, symObjAddr: 0x2E44, symBinAddr: 0x100006800, symSize: 0x10 }
  - { offsetInCU: 0x7A25, offset: 0x7A25, size: 0x8, addend: 0x0, symName: __ZNSt3__112__to_addressB7v160006I8VariableEEPT_S3_, symObjAddr: 0x2F88, symBinAddr: 0x100006944, symSize: 0x14 }
  - { offsetInCU: 0x7A5A, offset: 0x7A5A, size: 0x8, addend: 0x0, symName: __ZNSt3__119__libcpp_deallocateB7v160006EPvmm, symObjAddr: 0x30BC, symBinAddr: 0x100006A78, symSize: 0x60 }
  - { offsetInCU: 0x7ABF, offset: 0x7ABF, size: 0x8, addend: 0x0, symName: __ZNSt3__124__is_overaligned_for_newB7v160006Em, symObjAddr: 0x311C, symBinAddr: 0x100006AD8, symSize: 0x20 }
  - { offsetInCU: 0x7AED, offset: 0x7AED, size: 0x8, addend: 0x0, symName: __ZNSt3__127__do_deallocate_handle_sizeB7v160006IJSt11align_val_tEEEvPvmDpT_, symObjAddr: 0x313C, symBinAddr: 0x100006AF8, symSize: 0x30 }
  - { offsetInCU: 0x7B40, offset: 0x7B40, size: 0x8, addend: 0x0, symName: __ZNSt3__127__do_deallocate_handle_sizeB7v160006IJEEEvPvmDpT_, symObjAddr: 0x316C, symBinAddr: 0x100006B28, symSize: 0x28 }
  - { offsetInCU: 0x7B7E, offset: 0x7B7E, size: 0x8, addend: 0x0, symName: __ZNSt3__124__libcpp_operator_deleteB7v160006IJPvSt11align_val_tEEEvDpT_, symObjAddr: 0x3194, symBinAddr: 0x100006B50, symSize: 0x2C }
  - { offsetInCU: 0x7BC7, offset: 0x7BC7, size: 0x8, addend: 0x0, symName: __ZNSt3__124__libcpp_operator_deleteB7v160006IJPvEEEvDpT_, symObjAddr: 0x31C0, symBinAddr: 0x100006B7C, symSize: 0x24 }
  - { offsetInCU: 0x7BFC, offset: 0x7BFC, size: 0x8, addend: 0x0, symName: __ZNSt3__1eqB7v160006IP8VariableEEbRKNS_11__wrap_iterIT_EES7_, symObjAddr: 0x327C, symBinAddr: 0x100006C38, symSize: 0x48 }
  - { offsetInCU: 0x7C3F, offset: 0x7C3F, size: 0x8, addend: 0x0, symName: __ZNSt3__1plB7v160006IcNS_11char_traitsIcEENS_9allocatorIcEEEENS_12basic_stringIT_T0_T1_EERKS9_SB_, symObjAddr: 0x32DC, symBinAddr: 0x100006C98, symSize: 0x134 }
  - { offsetInCU: 0x7CE0, offset: 0x7CE0, size: 0x8, addend: 0x0, symName: __ZNSt3__112__to_addressB7v160006IcEEPT_S2_, symObjAddr: 0x34D4, symBinAddr: 0x100006E90, symSize: 0x14 }
  - { offsetInCU: 0x7F01, offset: 0x7F01, size: 0x8, addend: 0x0, symName: __ZNSt3__120__throw_length_errorB7v160006EPKc, symObjAddr: 0x3C78, symBinAddr: 0x100007634, symSize: 0x64 }
  - { offsetInCU: 0x7F29, offset: 0x7F29, size: 0x8, addend: 0x0, symName: __ZNSt3__117__libcpp_allocateB7v160006Emm, symObjAddr: 0x3E18, symBinAddr: 0x1000077D4, symSize: 0x60 }
  - { offsetInCU: 0x7F83, offset: 0x7F83, size: 0x8, addend: 0x0, symName: __ZNSt3__121__libcpp_operator_newB7v160006IJmSt11align_val_tEEEPvDpT_, symObjAddr: 0x3E78, symBinAddr: 0x100007834, symSize: 0x2C }
  - { offsetInCU: 0x7FD0, offset: 0x7FD0, size: 0x8, addend: 0x0, symName: __ZNSt3__121__libcpp_operator_newB7v160006IJmEEEPvDpT_, symObjAddr: 0x3EA4, symBinAddr: 0x100007860, symSize: 0x24 }
  - { offsetInCU: 0x803C, offset: 0x803C, size: 0x8, addend: 0x0, symName: __ZNSt3__14copyB7v160006IPKcPcEET0_T_S5_S4_, symObjAddr: 0x3FA8, symBinAddr: 0x100007964, symSize: 0x40 }
  - { offsetInCU: 0x8096, offset: 0x8096, size: 0x8, addend: 0x0, symName: __ZNSt3__16__copyB7v160006INS_17_ClassicAlgPolicyEPKcS3_PcEENS_4pairIT0_T2_EES6_T1_S7_, symObjAddr: 0x3FE8, symBinAddr: 0x1000079A4, symSize: 0x44 }
  - { offsetInCU: 0x8102, offset: 0x8102, size: 0x8, addend: 0x0, symName: __ZNSt3__123__dispatch_copy_or_moveB7v160006INS_17_ClassicAlgPolicyENS_11__copy_loopIS1_EENS_14__copy_trivialEPKcS6_PcEENS_4pairIT2_T4_EES9_T3_SA_, symObjAddr: 0x402C, symBinAddr: 0x1000079E8, symSize: 0x44 }
  - { offsetInCU: 0x8180, offset: 0x8180, size: 0x8, addend: 0x0, symName: __ZNSt3__121__unwrap_and_dispatchB7v160006INS_10__overloadINS_11__copy_loopINS_17_ClassicAlgPolicyEEENS_14__copy_trivialEEEPKcS8_PcLi0EEENS_4pairIT0_T2_EESB_T1_SC_, symObjAddr: 0x4070, symBinAddr: 0x100007A2C, symSize: 0xB4 }
  - { offsetInCU: 0x820E, offset: 0x820E, size: 0x8, addend: 0x0, symName: __ZNSt3__114__unwrap_rangeB7v160006IPKcS2_EENS_4pairIT0_S4_EET_S6_, symObjAddr: 0x4124, symBinAddr: 0x100007AE0, symSize: 0x60 }
  - { offsetInCU: 0x83A3, offset: 0x83A3, size: 0x8, addend: 0x0, symName: __ZNSt3__113__unwrap_iterB7v160006IPcNS_18__unwrap_iter_implIS1_Lb1EEELi0EEEDTclsrT0_8__unwrapclsr3stdE7declvalIT_EEEES5_, symObjAddr: 0x41CC, symBinAddr: 0x100007B88, symSize: 0x24 }
  - { offsetInCU: 0x83E7, offset: 0x83E7, size: 0x8, addend: 0x0, symName: __ZNSt3__19make_pairB7v160006IPKcPcEENS_4pairINS_18__unwrap_ref_decayIT_E4typeENS5_IT0_E4typeEEEOS6_OS9_, symObjAddr: 0x41F0, symBinAddr: 0x100007BAC, symSize: 0x38 }
  - { offsetInCU: 0x8436, offset: 0x8436, size: 0x8, addend: 0x0, symName: __ZNSt3__114__rewrap_rangeB7v160006IPKcS2_EET_S3_T0_, symObjAddr: 0x4228, symBinAddr: 0x100007BE4, symSize: 0x2C }
  - { offsetInCU: 0x8482, offset: 0x8482, size: 0x8, addend: 0x0, symName: __ZNSt3__113__rewrap_iterB7v160006IPcS1_NS_18__unwrap_iter_implIS1_Lb1EEEEET_S4_T0_, symObjAddr: 0x4254, symBinAddr: 0x100007C10, symSize: 0x3C }
  - { offsetInCU: 0x84D7, offset: 0x84D7, size: 0x8, addend: 0x0, symName: __ZNSt3__19make_pairB7v160006IPKcS2_EENS_4pairINS_18__unwrap_ref_decayIT_E4typeENS4_IT0_E4typeEEEOS5_OS8_, symObjAddr: 0x4290, symBinAddr: 0x100007C4C, symSize: 0x38 }
  - { offsetInCU: 0x8526, offset: 0x8526, size: 0x8, addend: 0x0, symName: __ZNSt3__113__unwrap_iterB7v160006IPKcNS_18__unwrap_iter_implIS2_Lb1EEELi0EEEDTclsrT0_8__unwrapclsr3stdE7declvalIT_EEEES6_, symObjAddr: 0x42C8, symBinAddr: 0x100007C84, symSize: 0x24 }
  - { offsetInCU: 0x8691, offset: 0x8691, size: 0x8, addend: 0x0, symName: __ZNSt3__112__to_addressB7v160006IKcEEPT_S3_, symObjAddr: 0x4380, symBinAddr: 0x100007D3C, symSize: 0x14 }
  - { offsetInCU: 0x86C6, offset: 0x86C6, size: 0x8, addend: 0x0, symName: __ZNSt3__119__copy_trivial_implB7v160006IKccEENS_4pairIPT_PT0_EES4_S4_S6_, symObjAddr: 0x4394, symBinAddr: 0x100007D50, symSize: 0x7C }
  - { offsetInCU: 0x872E, offset: 0x872E, size: 0x8, addend: 0x0, symName: __ZNSt3__19make_pairB7v160006IRPKcPcEENS_4pairINS_18__unwrap_ref_decayIT_E4typeENS6_IT0_E4typeEEEOS7_OSA_, symObjAddr: 0x4410, symBinAddr: 0x100007DCC, symSize: 0x38 }
  - { offsetInCU: 0x87D0, offset: 0x87D0, size: 0x8, addend: 0x0, symName: __ZNSt3__113__rewrap_iterB7v160006IPKcS2_NS_18__unwrap_iter_implIS2_Lb1EEEEET_S5_T0_, symObjAddr: 0x454C, symBinAddr: 0x100007F08, symSize: 0x3C }
  - { offsetInCU: 0x8858, offset: 0x8858, size: 0x8, addend: 0x0, symName: __ZNSt3__16fill_nB7v160006IPcmcEET_S2_T0_RKT1_, symObjAddr: 0x46D0, symBinAddr: 0x10000808C, symSize: 0x44 }
  - { offsetInCU: 0x88BB, offset: 0x88BB, size: 0x8, addend: 0x0, symName: __ZNSt3__18__fill_nB7v160006IPcmcEET_S2_T0_RKT1_, symObjAddr: 0x4714, symBinAddr: 0x1000080D0, symSize: 0x64 }
  - { offsetInCU: 0x891E, offset: 0x891E, size: 0x8, addend: 0x0, symName: __ZNSt3__121__convert_to_integralB7v160006Em, symObjAddr: 0x4778, symBinAddr: 0x100008134, symSize: 0x14 }
  - { offsetInCU: 0x894A, offset: 0x894A, size: 0x8, addend: 0x0, symName: __ZNSt3__1rsB7v160006IcNS_11char_traitsIcEENS_9allocatorIcEEEERNS_13basic_istreamIT_T0_EES9_RNS_12basic_stringIS6_S7_T1_EE, symObjAddr: 0x4E38, symBinAddr: 0x1000087F4, symSize: 0x31C }
  - { offsetInCU: 0x8A19, offset: 0x8A19, size: 0x8, addend: 0x0, symName: __ZNSt3__1neB7v160006IcNS_11char_traitsIcEENS_9allocatorIcEEEEbRKNS_12basic_stringIT_T0_T1_EESB_, symObjAddr: 0x5154, symBinAddr: 0x100008B10, symSize: 0x34 }
  - { offsetInCU: 0x8C66, offset: 0x8C66, size: 0x8, addend: 0x0, symName: __ZNSt3__19use_facetB7v160006INS_5ctypeIcEEEERKT_RKNS_6localeE, symObjAddr: 0x5258, symBinAddr: 0x100008C14, symSize: 0x2C }
  - { offsetInCU: 0x9046, offset: 0x9046, size: 0x8, addend: 0x0, symName: __ZNSt3__125__debug_db_invalidate_allB7v160006INS_12basic_stringIcNS_11char_traitsIcEENS_9allocatorIcEEEEEEvPT_, symObjAddr: 0x5534, symBinAddr: 0x100008EF0, symSize: 0x10 }
  - { offsetInCU: 0x9077, offset: 0x9077, size: 0x8, addend: 0x0, symName: __ZNSt3__116__pad_and_outputB7v160006IcNS_11char_traitsIcEEEENS_19ostreambuf_iteratorIT_T0_EES6_PKS4_S8_S8_RNS_8ios_baseES4_, symObjAddr: 0x57CC, symBinAddr: 0x100009188, symSize: 0x240 }
  - { offsetInCU: 0x9146, offset: 0x9146, size: 0x8, addend: 0x0, symName: __ZNSt3__118__constexpr_memcmpB7v160006IcEEiPKT_S3_m, symObjAddr: 0x5E34, symBinAddr: 0x1000097F0, symSize: 0x34 }
  - { offsetInCU: 0x9197, offset: 0x9197, size: 0x8, addend: 0x0, symName: __ZNSt3__115__debug_db_swapB7v160006INS_12basic_stringIcNS_11char_traitsIcEENS_9allocatorIcEEEEEEvPT_S8_, symObjAddr: 0x629C, symBinAddr: 0x100009C58, symSize: 0x14 }
  - { offsetInCU: 0x91D6, offset: 0x91D6, size: 0x8, addend: 0x0, symName: __ZNSt3__13maxB7v160006ImEERKT_S3_S3_, symObjAddr: 0x6588, symBinAddr: 0x100009F44, symSize: 0x2C }
  - { offsetInCU: 0x9219, offset: 0x9219, size: 0x8, addend: 0x0, symName: __ZNSt3__13minB7v160006ImEERKT_S3_S3_, symObjAddr: 0x65B4, symBinAddr: 0x100009F70, symSize: 0x2C }
  - { offsetInCU: 0x925C, offset: 0x925C, size: 0x8, addend: 0x0, symName: __ZNSt3__13minB7v160006ImNS_6__lessImmEEEERKT_S5_S5_T0_, symObjAddr: 0x662C, symBinAddr: 0x100009FE8, symSize: 0x54 }
  - { offsetInCU: 0x92F1, offset: 0x92F1, size: 0x8, addend: 0x0, symName: __ZNSt3__13maxB7v160006ImNS_6__lessImmEEEERKT_S5_S5_T0_, symObjAddr: 0x6700, symBinAddr: 0x10000A0BC, symSize: 0x54 }
  - { offsetInCU: 0x934B, offset: 0x934B, size: 0x8, addend: 0x0, symName: __ZNSt3__119__allocate_at_leastB7v160006INS_9allocatorI8VariableEEEENS_19__allocation_resultINS_16allocator_traitsIT_E7pointerEEERS6_m, symObjAddr: 0x6864, symBinAddr: 0x10000A220, symSize: 0x40 }
  - { offsetInCU: 0x938E, offset: 0x938E, size: 0x8, addend: 0x0, symName: __ZNSt3__142__uninitialized_allocator_move_if_noexceptB7v160006INS_9allocatorI8VariableEENS_16reverse_iteratorIPS2_EES6_S6_EET2_RT_T0_T1_S7_, symObjAddr: 0x6A18, symBinAddr: 0x10000A3D4, symSize: 0x12C }
  - { offsetInCU: 0x942E, offset: 0x942E, size: 0x8, addend: 0x0, symName: __ZNSt3__14swapB7v160006IP8VariableEENS_9enable_ifIXaasr21is_move_constructibleIT_EE5valuesr18is_move_assignableIS4_EE5valueEvE4typeERS4_S7_, symObjAddr: 0x6B90, symBinAddr: 0x10000A54C, symSize: 0x3C }
  - { offsetInCU: 0x947F, offset: 0x947F, size: 0x8, addend: 0x0, symName: __ZNSt3__125__debug_db_invalidate_allB7v160006INS_6vectorI8VariableNS_9allocatorIS2_EEEEEEvPT_, symObjAddr: 0x6C78, symBinAddr: 0x10000A634, symSize: 0x10 }
  - { offsetInCU: 0x94B0, offset: 0x94B0, size: 0x8, addend: 0x0, symName: __ZNSt3__122__make_exception_guardB7v160006INS_29_AllocatorDestroyRangeReverseINS_9allocatorI8VariableEENS_16reverse_iteratorIPS3_EEEEEENS_28__exception_guard_exceptionsIT_EESA_, symObjAddr: 0x6C88, symBinAddr: 0x10000A644, symSize: 0x4C }
  - { offsetInCU: 0x94E6, offset: 0x94E6, size: 0x8, addend: 0x0, symName: __ZNSt3__1neB7v160006IP8VariableS2_EEbRKNS_16reverse_iteratorIT_EERKNS3_IT0_EE, symObjAddr: 0x6D18, symBinAddr: 0x10000A6D4, symSize: 0x48 }
  - { offsetInCU: 0x9532, offset: 0x9532, size: 0x8, addend: 0x0, symName: __ZNSt3__112__to_addressB7v160006INS_16reverse_iteratorIP8VariableEEvEENS_5decayIDTclsr19__to_address_helperIT_EE6__callclsr3stdE7declvalIRKS6_EEEEE4typeES8_, symObjAddr: 0x6D60, symBinAddr: 0x10000A71C, symSize: 0x24 }
  - { offsetInCU: 0x9591, offset: 0x9591, size: 0x8, addend: 0x0, symName: __ZNSt3__119__allocator_destroyB7v160006INS_9allocatorI8VariableEENS_16reverse_iteratorINS4_IPS2_EEEES7_EEvRT_T0_T1_, symObjAddr: 0x7010, symBinAddr: 0x10000A9CC, symSize: 0x70 }
  - { offsetInCU: 0x95F6, offset: 0x95F6, size: 0x8, addend: 0x0, symName: __ZNSt3__1neB7v160006INS_16reverse_iteratorIP8VariableEES4_EEbRKNS1_IT_EERKNS1_IT0_EE, symObjAddr: 0x70BC, symBinAddr: 0x10000AA78, symSize: 0x60 }
  - { offsetInCU: 0x9642, offset: 0x9642, size: 0x8, addend: 0x0, symName: __ZNSt3__112__to_addressB7v160006INS_16reverse_iteratorINS1_IP8VariableEEEEvEENS_5decayIDTclsr19__to_address_helperIT_EE6__callclsr3stdE7declvalIRKS7_EEEEE4typeES9_, symObjAddr: 0x711C, symBinAddr: 0x10000AAD8, symSize: 0x24 }
  - { offsetInCU: 0x9979, offset: 0x9979, size: 0x8, addend: 0x0, symName: __ZSt28__throw_bad_array_new_lengthB7v160006v, symObjAddr: 0x3DE4, symBinAddr: 0x1000077A0, symSize: 0x34 }
  - { offsetInCU: 0x9B8F, offset: 0x9B8F, size: 0x8, addend: 0x0, symName: __ZL6result, symObjAddr: 0x3A848, symBinAddr: 0x100010018, symSize: 0x0 }
  - { offsetInCU: 0x9BA8, offset: 0x9BA8, size: 0x8, addend: 0x0, symName: _st, symObjAddr: 0x3A860, symBinAddr: 0x100010030, symSize: 0x0 }
  - { offsetInCU: 0x9F15, offset: 0x9F15, size: 0x8, addend: 0x0, symName: _ts, symObjAddr: 0x3A878, symBinAddr: 0x100010048, symSize: 0x0 }
  - { offsetInCU: 0xA2CA, offset: 0xA2CA, size: 0x8, addend: 0x0, symName: __ZNSt3__16vectorI8VariableNS_9allocatorIS1_EEE26__swap_out_circular_bufferERNS_14__split_bufferIS1_RS3_EE, symObjAddr: 0x63C8, symBinAddr: 0x100009D84, symSize: 0x118 }
  - { offsetInCU: 0xA3EB, offset: 0xA3EB, size: 0x8, addend: 0x0, symName: __Z7isalphai, symObjAddr: 0xE88, symBinAddr: 0x100004844, symSize: 0x28 }
  - { offsetInCU: 0xA441, offset: 0xA441, size: 0x8, addend: 0x0, symName: __Z7isdigiti, symObjAddr: 0xF78, symBinAddr: 0x100004934, symSize: 0x28 }
  - { offsetInCU: 0xC5BB, offset: 0xC5BB, size: 0x8, addend: 0x0, symName: __ZN6StringC1EPKc, symObjAddr: 0x0, symBinAddr: 0x1000039BC, symSize: 0x34 }
  - { offsetInCU: 0xC5F3, offset: 0xC5F3, size: 0x8, addend: 0x0, symName: __ZN6StringD1Ev, symObjAddr: 0x34, symBinAddr: 0x1000039F0, symSize: 0x2C }
  - { offsetInCU: 0xC61F, offset: 0xC61F, size: 0x8, addend: 0x0, symName: __ZN12Symbol_tableC1Ev, symObjAddr: 0x60, symBinAddr: 0x100003A1C, symSize: 0x2C }
  - { offsetInCU: 0xC64B, offset: 0xC64B, size: 0x8, addend: 0x0, symName: __ZN12Symbol_tableD1Ev, symObjAddr: 0x8C, symBinAddr: 0x100003A48, symSize: 0x2C }
  - { offsetInCU: 0xC677, offset: 0xC677, size: 0x8, addend: 0x0, symName: __ZN12Symbol_table3getE6String, symObjAddr: 0xB8, symBinAddr: 0x100003A74, symSize: 0xE8 }
  - { offsetInCU: 0xC6FE, offset: 0xC6FE, size: 0x8, addend: 0x0, symName: __ZNSt3__16vectorI8VariableNS_9allocatorIS1_EEE5beginB7v160006Ev, symObjAddr: 0x1A0, symBinAddr: 0x100003B5C, symSize: 0x30 }
  - { offsetInCU: 0xC726, offset: 0xC726, size: 0x8, addend: 0x0, symName: __ZNSt3__16vectorI8VariableNS_9allocatorIS1_EEE3endB7v160006Ev, symObjAddr: 0x1D0, symBinAddr: 0x100003B8C, symSize: 0x30 }
  - { offsetInCU: 0xC74E, offset: 0xC74E, size: 0x8, addend: 0x0, symName: __ZNKSt3__111__wrap_iterIP8VariableEdeB7v160006Ev, symObjAddr: 0x234, symBinAddr: 0x100003BF0, symSize: 0x18 }
  - { offsetInCU: 0xC774, offset: 0xC774, size: 0x8, addend: 0x0, symName: __ZNSt3__111__wrap_iterIP8VariableEppB7v160006Ev, symObjAddr: 0x394, symBinAddr: 0x100003D50, symSize: 0x20 }
  - { offsetInCU: 0xC799, offset: 0xC799, size: 0x8, addend: 0x0, symName: __Z5errorRKNSt3__112basic_stringIcNS_11char_traitsIcEENS_9allocatorIcEEEES7_, symObjAddr: 0x3B4, symBinAddr: 0x100003D70, symSize: 0x58 }
  - { offsetInCU: 0xC7D5, offset: 0xC7D5, size: 0x8, addend: 0x0, symName: __ZNSt3__112basic_stringIcNS_11char_traitsIcEENS_9allocatorIcEEEC1B7v160006IDnEEPKc, symObjAddr: 0x40C, symBinAddr: 0x100003DC8, symSize: 0x34 }
  - { offsetInCU: 0xC813, offset: 0xC813, size: 0x8, addend: 0x0, symName: __ZN12Symbol_table3setE6Stringd, symObjAddr: 0x440, symBinAddr: 0x100003DFC, symSize: 0xF0 }
  - { offsetInCU: 0xC8A8, offset: 0xC8A8, size: 0x8, addend: 0x0, symName: __ZN12Token_streamC2Ev, symObjAddr: 0x530, symBinAddr: 0x100003EEC, symSize: 0x38 }
  - { offsetInCU: 0xC8D3, offset: 0xC8D3, size: 0x8, addend: 0x0, symName: __ZN5TokenC1Ec, symObjAddr: 0x568, symBinAddr: 0x100003F24, symSize: 0x34 }
  - { offsetInCU: 0xC90B, offset: 0xC90B, size: 0x8, addend: 0x0, symName: __ZN12Token_streamC1Ev, symObjAddr: 0x59C, symBinAddr: 0x100003F58, symSize: 0x2C }
  - { offsetInCU: 0xC936, offset: 0xC936, size: 0x8, addend: 0x0, symName: __ZN12Token_stream6ignoreEc, symObjAddr: 0x5C8, symBinAddr: 0x100003F84, symSize: 0xB4 }
  - { offsetInCU: 0xC979, offset: 0xC979, size: 0x8, addend: 0x0, symName: __ZNKSt3__19basic_iosIcNS_11char_traitsIcEEEcvbB7v160006Ev, symObjAddr: 0x808, symBinAddr: 0x1000041C4, symSize: 0x2C }
  - { offsetInCU: 0xC99F, offset: 0xC99F, size: 0x8, addend: 0x0, symName: __ZN12Token_stream7putbackE5Token, symObjAddr: 0x834, symBinAddr: 0x1000041F0, symSize: 0x98 }
  - { offsetInCU: 0xC9D4, offset: 0xC9D4, size: 0x8, addend: 0x0, symName: __Z5errorRKNSt3__112basic_stringIcNS_11char_traitsIcEENS_9allocatorIcEEEE, symObjAddr: 0x8CC, symBinAddr: 0x100004288, symSize: 0x64 }
  - { offsetInCU: 0xCA0C, offset: 0xCA0C, size: 0x8, addend: 0x0, symName: __ZN5TokenaSERKS_, symObjAddr: 0x930, symBinAddr: 0x1000042EC, symSize: 0x48 }
  - { offsetInCU: 0xCA3D, offset: 0xCA3D, size: 0x8, addend: 0x0, symName: __ZN12Token_stream3getEv, symObjAddr: 0x978, symBinAddr: 0x100004334, symSize: 0x34C }
  - { offsetInCU: 0xCAAA, offset: 0xCAAA, size: 0x8, addend: 0x0, symName: __ZN5TokenC1ERKS_, symObjAddr: 0xE18, symBinAddr: 0x1000047D4, symSize: 0x34 }
  - { offsetInCU: 0xCADF, offset: 0xCADF, size: 0x8, addend: 0x0, symName: __ZN5TokenC1Ecd, symObjAddr: 0xE4C, symBinAddr: 0x100004808, symSize: 0x3C }
  - { offsetInCU: 0xCB25, offset: 0xCB25, size: 0x8, addend: 0x0, symName: __ZN6StringC1Ev, symObjAddr: 0xEB0, symBinAddr: 0x10000486C, symSize: 0x2C }
  - { offsetInCU: 0xCB4F, offset: 0xCB4F, size: 0x8, addend: 0x0, symName: __ZNSt3__112basic_stringIcNS_11char_traitsIcEENS_9allocatorIcEEEpLB7v160006Ec, symObjAddr: 0xEDC, symBinAddr: 0x100004898, symSize: 0x34 }
  - { offsetInCU: 0xCC0F, offset: 0xCC0F, size: 0x8, addend: 0x0, symName: __ZNSt3__113basic_istreamIcNS_11char_traitsIcEEE3getB7v160006ERc, symObjAddr: 0xF10, symBinAddr: 0x1000048CC, symSize: 0x68 }
  - { offsetInCU: 0xCC56, offset: 0xCC56, size: 0x8, addend: 0x0, symName: __ZN6StringC1ERKS_, symObjAddr: 0x104C, symBinAddr: 0x100004A08, symSize: 0x34 }
  - { offsetInCU: 0xCC8B, offset: 0xCC8B, size: 0x8, addend: 0x0, symName: __ZN5TokenC1Ec6String, symObjAddr: 0x1080, symBinAddr: 0x100004A3C, symSize: 0x3C }
  - { offsetInCU: 0xCCD2, offset: 0xCCD2, size: 0x8, addend: 0x0, symName: __ZN12Token_streamD1Ev, symObjAddr: 0x10BC, symBinAddr: 0x100004A78, symSize: 0x2C }
  - { offsetInCU: 0xCCFE, offset: 0xCCFE, size: 0x8, addend: 0x0, symName: __ZN12Symbol_table11is_declaredE6String, symObjAddr: 0x10E8, symBinAddr: 0x100004AA4, symSize: 0xC8 }
  - { offsetInCU: 0xCD85, offset: 0xCD85, size: 0x8, addend: 0x0, symName: __ZN12Symbol_table6defineE6Stringd, symObjAddr: 0x11B0, symBinAddr: 0x100004B6C, symSize: 0x108 }
  - { offsetInCU: 0xCDC9, offset: 0xCDC9, size: 0x8, addend: 0x0, symName: __ZNSt3__16vectorI8VariableNS_9allocatorIS1_EEE9push_backB7v160006EOS1_, symObjAddr: 0x12B8, symBinAddr: 0x100004C74, symSize: 0x6C }
  - { offsetInCU: 0xCE05, offset: 0xCE05, size: 0x8, addend: 0x0, symName: __ZN8VariableD1Ev, symObjAddr: 0x1324, symBinAddr: 0x100004CE0, symSize: 0x2C }
  - { offsetInCU: 0xCE30, offset: 0xCE30, size: 0x8, addend: 0x0, symName: __Z11declarationv, symObjAddr: 0x1350, symBinAddr: 0x100004D0C, symSize: 0x1D0 }
  - { offsetInCU: 0xCE88, offset: 0xCE88, size: 0x8, addend: 0x0, symName: __Z23fourth_order_expressionv, symObjAddr: 0x1520, symBinAddr: 0x100004EDC, symSize: 0x1D4 }
  - { offsetInCU: 0xCEC6, offset: 0xCEC6, size: 0x8, addend: 0x0, symName: __ZN5TokenD1Ev, symObjAddr: 0x16F4, symBinAddr: 0x1000050B0, symSize: 0x2C }
  - { offsetInCU: 0xCEF1, offset: 0xCEF1, size: 0x8, addend: 0x0, symName: __Z9statementv, symObjAddr: 0x1720, symBinAddr: 0x1000050DC, symSize: 0xF0 }
  - { offsetInCU: 0xCF1D, offset: 0xCF1D, size: 0x8, addend: 0x0, symName: __Z22first_order_expressionv, symObjAddr: 0x1810, symBinAddr: 0x1000051CC, symSize: 0x34C }
  - { offsetInCU: 0xCFA6, offset: 0xCFA6, size: 0x8, addend: 0x0, symName: __ZN5TokenaSEOS_, symObjAddr: 0x1B5C, symBinAddr: 0x100005518, symSize: 0x48 }
  - { offsetInCU: 0xCFD6, offset: 0xCFD6, size: 0x8, addend: 0x0, symName: __Z23second_order_expressionv, symObjAddr: 0x1BA4, symBinAddr: 0x100005560, symSize: 0x17C }
  - { offsetInCU: 0xD02C, offset: 0xD02C, size: 0x8, addend: 0x0, symName: __Z22third_order_expressionv, symObjAddr: 0x1D20, symBinAddr: 0x1000056DC, symSize: 0x2E8 }
  - { offsetInCU: 0xD0A2, offset: 0xD0A2, size: 0x8, addend: 0x0, symName: __Z13clean_up_messv, symObjAddr: 0x2034, symBinAddr: 0x1000059F0, symSize: 0x20 }
  - { offsetInCU: 0xD0BC, offset: 0xD0BC, size: 0x8, addend: 0x0, symName: __Z9calculatev, symObjAddr: 0x2054, symBinAddr: 0x100005A10, symSize: 0x260 }
  - { offsetInCU: 0xD111, offset: 0xD111, size: 0x8, addend: 0x0, symName: __Z16keep_window_openv, symObjAddr: 0x2300, symBinAddr: 0x100005CBC, symSize: 0x58 }
  - { offsetInCU: 0xD13A, offset: 0xD13A, size: 0x8, addend: 0x0, symName: _main, symObjAddr: 0x23AC, symBinAddr: 0x100005D68, symSize: 0x298 }
  - { offsetInCU: 0xD165, offset: 0xD165, size: 0x8, addend: 0x0, symName: __Z16keep_window_openNSt3__112basic_stringIcNS_11char_traitsIcEENS_9allocatorIcEEEE, symObjAddr: 0x2644, symBinAddr: 0x100006000, symSize: 0x180 }
  - { offsetInCU: 0xD1AB, offset: 0xD1AB, size: 0x8, addend: 0x0, symName: __ZN6StringC2EPKc, symObjAddr: 0x27C4, symBinAddr: 0x100006180, symSize: 0x34 }
  - { offsetInCU: 0xD1E3, offset: 0xD1E3, size: 0x8, addend: 0x0, symName: __ZNSt3__112basic_stringIcNS_11char_traitsIcEENS_9allocatorIcEEEC2B7v160006IDnEEPKc, symObjAddr: 0x27F8, symBinAddr: 0x1000061B4, symSize: 0x60 }
  - { offsetInCU: 0xD226, offset: 0xD226, size: 0x8, addend: 0x0, symName: __ZNSt3__117__compressed_pairINS_12basic_stringIcNS_11char_traitsIcEENS_9allocatorIcEEE5__repES5_EC1B7v160006INS_18__default_init_tagESA_EEOT_OT0_, symObjAddr: 0x2858, symBinAddr: 0x100006214, symSize: 0x3C }
  - { offsetInCU: 0xD27E, offset: 0xD27E, size: 0x8, addend: 0x0, symName: __ZNSt3__111char_traitsIcE6lengthEPKc, symObjAddr: 0x2894, symBinAddr: 0x100006250, symSize: 0x34 }
  - { offsetInCU: 0xD2A1, offset: 0xD2A1, size: 0x8, addend: 0x0, symName: __ZNSt3__117__compressed_pairINS_12basic_stringIcNS_11char_traitsIcEENS_9allocatorIcEEE5__repES5_EC2B7v160006INS_18__default_init_tagESA_EEOT_OT0_, symObjAddr: 0x28D8, symBinAddr: 0x100006294, symSize: 0x3C }
  - { offsetInCU: 0xD2F9, offset: 0xD2F9, size: 0x8, addend: 0x0, symName: __ZNSt3__122__compressed_pair_elemINS_12basic_stringIcNS_11char_traitsIcEENS_9allocatorIcEEE5__repELi0ELb0EEC2B7v160006ENS_18__default_init_tagE, symObjAddr: 0x2914, symBinAddr: 0x1000062D0, symSize: 0x14 }
  - { offsetInCU: 0xD32E, offset: 0xD32E, size: 0x8, addend: 0x0, symName: __ZNSt3__122__compressed_pair_elemINS_9allocatorIcEELi1ELb1EEC2B7v160006ENS_18__default_init_tagE, symObjAddr: 0x2928, symBinAddr: 0x1000062E4, symSize: 0x2C }
  - { offsetInCU: 0xD363, offset: 0xD363, size: 0x8, addend: 0x0, symName: __ZNSt3__19allocatorIcEC2B7v160006Ev, symObjAddr: 0x2954, symBinAddr: 0x100006310, symSize: 0x2C }
  - { offsetInCU: 0xD38D, offset: 0xD38D, size: 0x8, addend: 0x0, symName: __ZNSt3__116__non_trivial_ifILb1ENS_9allocatorIcEEEC2B7v160006Ev, symObjAddr: 0x2980, symBinAddr: 0x10000633C, symSize: 0x14 }
  - { offsetInCU: 0xD3B7, offset: 0xD3B7, size: 0x8, addend: 0x0, symName: __ZN6StringD2Ev, symObjAddr: 0x29B8, symBinAddr: 0x100006374, symSize: 0x2C }
  - { offsetInCU: 0xD3E3, offset: 0xD3E3, size: 0x8, addend: 0x0, symName: __ZN12Symbol_tableC2Ev, symObjAddr: 0x29E4, symBinAddr: 0x1000063A0, symSize: 0x2C }
  - { offsetInCU: 0xD40F, offset: 0xD40F, size: 0x8, addend: 0x0, symName: __ZN6VectorI8VariableEC1Ev, symObjAddr: 0x2A10, symBinAddr: 0x1000063CC, symSize: 0x2C }
  - { offsetInCU: 0xD439, offset: 0xD439, size: 0x8, addend: 0x0, symName: __ZN6VectorI8VariableEC2Ev, symObjAddr: 0x2A3C, symBinAddr: 0x1000063F8, symSize: 0x2C }
  - { offsetInCU: 0xD463, offset: 0xD463, size: 0x8, addend: 0x0, symName: __ZNSt3__16vectorI8VariableNS_9allocatorIS1_EEEC2B7v160006Ev, symObjAddr: 0x2A68, symBinAddr: 0x100006424, symSize: 0x58 }
  - { offsetInCU: 0xD492, offset: 0xD492, size: 0x8, addend: 0x0, symName: __ZNSt3__117__compressed_pairIP8VariableNS_9allocatorIS1_EEEC1B7v160006IDnNS_18__default_init_tagEEEOT_OT0_, symObjAddr: 0x2AC0, symBinAddr: 0x10000647C, symSize: 0x3C }
  - { offsetInCU: 0xD4EA, offset: 0xD4EA, size: 0x8, addend: 0x0, symName: __ZNSt3__117__compressed_pairIP8VariableNS_9allocatorIS1_EEEC2B7v160006IDnNS_18__default_init_tagEEEOT_OT0_, symObjAddr: 0x2B0C, symBinAddr: 0x1000064C8, symSize: 0x40 }
  - { offsetInCU: 0xD542, offset: 0xD542, size: 0x8, addend: 0x0, symName: __ZNSt3__122__compressed_pair_elemIP8VariableLi0ELb0EEC2B7v160006IDnvEEOT_, symObjAddr: 0x2B4C, symBinAddr: 0x100006508, symSize: 0x1C }
  - { offsetInCU: 0xD584, offset: 0xD584, size: 0x8, addend: 0x0, symName: __ZNSt3__122__compressed_pair_elemINS_9allocatorI8VariableEELi1ELb1EEC2B7v160006ENS_18__default_init_tagE, symObjAddr: 0x2B68, symBinAddr: 0x100006524, symSize: 0x2C }
  - { offsetInCU: 0xD5B9, offset: 0xD5B9, size: 0x8, addend: 0x0, symName: __ZNSt3__19allocatorI8VariableEC2B7v160006Ev, symObjAddr: 0x2B94, symBinAddr: 0x100006550, symSize: 0x2C }
  - { offsetInCU: 0xD5E3, offset: 0xD5E3, size: 0x8, addend: 0x0, symName: __ZNSt3__116__non_trivial_ifILb1ENS_9allocatorI8VariableEEEC2B7v160006Ev, symObjAddr: 0x2BC0, symBinAddr: 0x10000657C, symSize: 0x14 }
  - { offsetInCU: 0xD60D, offset: 0xD60D, size: 0x8, addend: 0x0, symName: __ZN12Symbol_tableD2Ev, symObjAddr: 0x2BD4, symBinAddr: 0x100006590, symSize: 0x2C }
  - { offsetInCU: 0xD639, offset: 0xD639, size: 0x8, addend: 0x0, symName: __ZN6VectorI8VariableED1Ev, symObjAddr: 0x2C00, symBinAddr: 0x1000065BC, symSize: 0x2C }
  - { offsetInCU: 0xD665, offset: 0xD665, size: 0x8, addend: 0x0, symName: __ZN6VectorI8VariableED2Ev, symObjAddr: 0x2C2C, symBinAddr: 0x1000065E8, symSize: 0x2C }
  - { offsetInCU: 0xD691, offset: 0xD691, size: 0x8, addend: 0x0, symName: __ZNSt3__16vectorI8VariableNS_9allocatorIS1_EEED2B7v160006Ev, symObjAddr: 0x2C58, symBinAddr: 0x100006614, symSize: 0x44 }
  - { offsetInCU: 0xD6BB, offset: 0xD6BB, size: 0x8, addend: 0x0, symName: __ZNSt3__16vectorI8VariableNS_9allocatorIS1_EEE16__destroy_vectorC1ERS4_, symObjAddr: 0x2C9C, symBinAddr: 0x100006658, symSize: 0x34 }
  - { offsetInCU: 0xD6F4, offset: 0xD6F4, size: 0x8, addend: 0x0, symName: __ZNSt3__16vectorI8VariableNS_9allocatorIS1_EEE16__destroy_vectorclB7v160006Ev, symObjAddr: 0x2CD0, symBinAddr: 0x10000668C, symSize: 0x9C }
  - { offsetInCU: 0xD71A, offset: 0xD71A, size: 0x8, addend: 0x0, symName: __ZNSt3__16vectorI8VariableNS_9allocatorIS1_EEE16__destroy_vectorC2ERS4_, symObjAddr: 0x2D6C, symBinAddr: 0x100006728, symSize: 0x20 }
  - { offsetInCU: 0xD753, offset: 0xD753, size: 0x8, addend: 0x0, symName: __ZNKSt3__16vectorI8VariableNS_9allocatorIS1_EEE17__annotate_deleteB7v160006Ev, symObjAddr: 0x2D8C, symBinAddr: 0x100006748, symSize: 0xB8 }
  - { offsetInCU: 0xD779, offset: 0xD779, size: 0x8, addend: 0x0, symName: __ZNSt3__16vectorI8VariableNS_9allocatorIS1_EEE7__clearB7v160006Ev, symObjAddr: 0x2E54, symBinAddr: 0x100006810, symSize: 0x28 }
  - { offsetInCU: 0xD79F, offset: 0xD79F, size: 0x8, addend: 0x0, symName: __ZNSt3__116allocator_traitsINS_9allocatorI8VariableEEE10deallocateB7v160006ERS3_PS2_m, symObjAddr: 0x2E7C, symBinAddr: 0x100006838, symSize: 0x34 }
  - { offsetInCU: 0xD7E1, offset: 0xD7E1, size: 0x8, addend: 0x0, symName: __ZNSt3__16vectorI8VariableNS_9allocatorIS1_EEE7__allocB7v160006Ev, symObjAddr: 0x2EB0, symBinAddr: 0x10000686C, symSize: 0x28 }
  - { offsetInCU: 0xD807, offset: 0xD807, size: 0x8, addend: 0x0, symName: __ZNKSt3__16vectorI8VariableNS_9allocatorIS1_EEE8capacityB7v160006Ev, symObjAddr: 0x2ED8, symBinAddr: 0x100006894, symSize: 0x40 }
  - { offsetInCU: 0xD82D, offset: 0xD82D, size: 0x8, addend: 0x0, symName: __ZNKSt3__16vectorI8VariableNS_9allocatorIS1_EEE31__annotate_contiguous_containerB7v160006EPKvS6_S6_S6_, symObjAddr: 0x2F18, symBinAddr: 0x1000068D4, symSize: 0x20 }
  - { offsetInCU: 0xD883, offset: 0xD883, size: 0x8, addend: 0x0, symName: __ZNKSt3__16vectorI8VariableNS_9allocatorIS1_EEE4dataB7v160006Ev, symObjAddr: 0x2F38, symBinAddr: 0x1000068F4, symSize: 0x28 }
  - { offsetInCU: 0xD8A9, offset: 0xD8A9, size: 0x8, addend: 0x0, symName: __ZNKSt3__16vectorI8VariableNS_9allocatorIS1_EEE4sizeB7v160006Ev, symObjAddr: 0x2F60, symBinAddr: 0x10000691C, symSize: 0x28 }
  - { offsetInCU: 0xD8CF, offset: 0xD8CF, size: 0x8, addend: 0x0, symName: __ZNSt3__16vectorI8VariableNS_9allocatorIS1_EEE22__base_destruct_at_endB7v160006EPS1_, symObjAddr: 0x2F9C, symBinAddr: 0x100006958, symSize: 0x8C }
  - { offsetInCU: 0xD913, offset: 0xD913, size: 0x8, addend: 0x0, symName: __ZNSt3__116allocator_traitsINS_9allocatorI8VariableEEE7destroyB7v160006IS2_vEEvRS3_PT_, symObjAddr: 0x3028, symBinAddr: 0x1000069E4, symSize: 0x2C }
  - { offsetInCU: 0xD950, offset: 0xD950, size: 0x8, addend: 0x0, symName: __ZNSt3__19allocatorI8VariableE7destroyB7v160006EPS1_, symObjAddr: 0x3054, symBinAddr: 0x100006A10, symSize: 0x28 }
  - { offsetInCU: 0xD984, offset: 0xD984, size: 0x8, addend: 0x0, symName: __ZNSt3__19allocatorI8VariableE10deallocateB7v160006EPS1_m, symObjAddr: 0x307C, symBinAddr: 0x100006A38, symSize: 0x40 }
  - { offsetInCU: 0xD9C6, offset: 0xD9C6, size: 0x8, addend: 0x0, symName: __ZNSt3__117__compressed_pairIP8VariableNS_9allocatorIS1_EEE6secondB7v160006Ev, symObjAddr: 0x31E4, symBinAddr: 0x100006BA0, symSize: 0x24 }
  - { offsetInCU: 0xD9EC, offset: 0xD9EC, size: 0x8, addend: 0x0, symName: __ZNSt3__122__compressed_pair_elemINS_9allocatorI8VariableEELi1ELb1EE5__getB7v160006Ev, symObjAddr: 0x3208, symBinAddr: 0x100006BC4, symSize: 0x14 }
  - { offsetInCU: 0xDA12, offset: 0xDA12, size: 0x8, addend: 0x0, symName: __ZNKSt3__16vectorI8VariableNS_9allocatorIS1_EEE9__end_capB7v160006Ev, symObjAddr: 0x321C, symBinAddr: 0x100006BD8, symSize: 0x28 }
  - { offsetInCU: 0xDA38, offset: 0xDA38, size: 0x8, addend: 0x0, symName: __ZNKSt3__117__compressed_pairIP8VariableNS_9allocatorIS1_EEE5firstB7v160006Ev, symObjAddr: 0x3244, symBinAddr: 0x100006C00, symSize: 0x24 }
  - { offsetInCU: 0xDA5E, offset: 0xDA5E, size: 0x8, addend: 0x0, symName: __ZNKSt3__122__compressed_pair_elemIP8VariableLi0ELb0EE5__getB7v160006Ev, symObjAddr: 0x3268, symBinAddr: 0x100006C24, symSize: 0x14 }
  - { offsetInCU: 0xDA84, offset: 0xDA84, size: 0x8, addend: 0x0, symName: __ZNKSt3__111__wrap_iterIP8VariableE4baseB7v160006Ev, symObjAddr: 0x32C4, symBinAddr: 0x100006C80, symSize: 0x18 }
  - { offsetInCU: 0xDAAA, offset: 0xDAAA, size: 0x8, addend: 0x0, symName: __ZNKSt3__112basic_stringIcNS_11char_traitsIcEENS_9allocatorIcEEE4sizeB7v160006Ev, symObjAddr: 0x3410, symBinAddr: 0x100006DCC, symSize: 0x54 }
  - { offsetInCU: 0xDADA, offset: 0xDADA, size: 0x8, addend: 0x0, symName: __ZNSt3__116allocator_traitsINS_9allocatorIcEEE37select_on_container_copy_constructionB7v160006IS2_vvEES2_RKS2_, symObjAddr: 0x3464, symBinAddr: 0x100006E20, symSize: 0x10 }
  - { offsetInCU: 0xDB09, offset: 0xDB09, size: 0x8, addend: 0x0, symName: __ZNKSt3__112basic_stringIcNS_11char_traitsIcEENS_9allocatorIcEEE13get_allocatorB7v160006Ev, symObjAddr: 0x3474, symBinAddr: 0x100006E30, symSize: 0x24 }
  - { offsetInCU: 0xDB2F, offset: 0xDB2F, size: 0x8, addend: 0x0, symName: __ZNSt3__112basic_stringIcNS_11char_traitsIcEENS_9allocatorIcEEEC1B7v160006ENS_24__uninitialized_size_tagEmRKS4_, symObjAddr: 0x3498, symBinAddr: 0x100006E54, symSize: 0x3C }
  - { offsetInCU: 0xDB83, offset: 0xDB83, size: 0x8, addend: 0x0, symName: __ZNSt3__112basic_stringIcNS_11char_traitsIcEENS_9allocatorIcEEE13__get_pointerB7v160006Ev, symObjAddr: 0x34E8, symBinAddr: 0x100006EA4, symSize: 0x54 }
  - { offsetInCU: 0xDBA9, offset: 0xDBA9, size: 0x8, addend: 0x0, symName: __ZNSt3__111char_traitsIcE4copyEPcPKcm, symObjAddr: 0x353C, symBinAddr: 0x100006EF8, symSize: 0x5C }
  - { offsetInCU: 0xDBE8, offset: 0xDBE8, size: 0x8, addend: 0x0, symName: __ZNKSt3__112basic_stringIcNS_11char_traitsIcEENS_9allocatorIcEEE4dataB7v160006Ev, symObjAddr: 0x3598, symBinAddr: 0x100006F54, symSize: 0x28 }
  - { offsetInCU: 0xDC0E, offset: 0xDC0E, size: 0x8, addend: 0x0, symName: __ZNSt3__111char_traitsIcE6assignEPcmc, symObjAddr: 0x35C0, symBinAddr: 0x100006F7C, symSize: 0x44 }
  - { offsetInCU: 0xDC4D, offset: 0xDC4D, size: 0x8, addend: 0x0, symName: __ZNKSt3__112basic_stringIcNS_11char_traitsIcEENS_9allocatorIcEEE9__is_longB7v160006Ev, symObjAddr: 0x3604, symBinAddr: 0x100006FC0, symSize: 0x38 }
  - { offsetInCU: 0xDC73, offset: 0xDC73, size: 0x8, addend: 0x0, symName: __ZNKSt3__112basic_stringIcNS_11char_traitsIcEENS_9allocatorIcEEE15__get_long_sizeB7v160006Ev, symObjAddr: 0x363C, symBinAddr: 0x100006FF8, symSize: 0x28 }
  - { offsetInCU: 0xDC99, offset: 0xDC99, size: 0x8, addend: 0x0, symName: __ZNKSt3__112basic_stringIcNS_11char_traitsIcEENS_9allocatorIcEEE16__get_short_sizeB7v160006Ev, symObjAddr: 0x3664, symBinAddr: 0x100007020, symSize: 0x34 }
  - { offsetInCU: 0xDCBF, offset: 0xDCBF, size: 0x8, addend: 0x0, symName: __ZNKSt3__117__compressed_pairINS_12basic_stringIcNS_11char_traitsIcEENS_9allocatorIcEEE5__repES5_E5firstB7v160006Ev, symObjAddr: 0x3698, symBinAddr: 0x100007054, symSize: 0x24 }
  - { offsetInCU: 0xDCE5, offset: 0xDCE5, size: 0x8, addend: 0x0, symName: __ZNKSt3__122__compressed_pair_elemINS_12basic_stringIcNS_11char_traitsIcEENS_9allocatorIcEEE5__repELi0ELb0EE5__getB7v160006Ev, symObjAddr: 0x36BC, symBinAddr: 0x100007078, symSize: 0x14 }
  - { offsetInCU: 0xDD0B, offset: 0xDD0B, size: 0x8, addend: 0x0, symName: __ZNKSt3__112basic_stringIcNS_11char_traitsIcEENS_9allocatorIcEEE7__allocB7v160006Ev, symObjAddr: 0x36D0, symBinAddr: 0x10000708C, symSize: 0x24 }
  - { offsetInCU: 0xDD31, offset: 0xDD31, size: 0x8, addend: 0x0, symName: __ZNKSt3__117__compressed_pairINS_12basic_stringIcNS_11char_traitsIcEENS_9allocatorIcEEE5__repES5_E6secondB7v160006Ev, symObjAddr: 0x36F4, symBinAddr: 0x1000070B0, symSize: 0x24 }
  - { offsetInCU: 0xDD57, offset: 0xDD57, size: 0x8, addend: 0x0, symName: __ZNKSt3__122__compressed_pair_elemINS_9allocatorIcEELi1ELb1EE5__getB7v160006Ev, symObjAddr: 0x3718, symBinAddr: 0x1000070D4, symSize: 0x14 }
  - { offsetInCU: 0xDD7D, offset: 0xDD7D, size: 0x8, addend: 0x0, symName: __ZNSt3__112basic_stringIcNS_11char_traitsIcEENS_9allocatorIcEEEC2B7v160006ENS_24__uninitialized_size_tagEmRKS4_, symObjAddr: 0x372C, symBinAddr: 0x1000070E8, symSize: 0x118 }
  - { offsetInCU: 0xDDFD, offset: 0xDDFD, size: 0x8, addend: 0x0, symName: __ZNSt3__117__compressed_pairINS_12basic_stringIcNS_11char_traitsIcEENS_9allocatorIcEEE5__repES5_EC1B7v160006INS_18__default_init_tagERKS5_EEOT_OT0_, symObjAddr: 0x3844, symBinAddr: 0x100007200, symSize: 0x3C }
  - { offsetInCU: 0xDE55, offset: 0xDE55, size: 0x8, addend: 0x0, symName: __ZNKSt3__112basic_stringIcNS_11char_traitsIcEENS_9allocatorIcEEE8max_sizeB7v160006Ev, symObjAddr: 0x3880, symBinAddr: 0x10000723C, symSize: 0xAC }
  - { offsetInCU: 0xDEA7, offset: 0xDEA7, size: 0x8, addend: 0x0, symName: __ZNKSt3__112basic_stringIcNS_11char_traitsIcEENS_9allocatorIcEEE20__throw_length_errorB7v160006Ev, symObjAddr: 0x392C, symBinAddr: 0x1000072E8, symSize: 0x1C }
  - { offsetInCU: 0xDECD, offset: 0xDECD, size: 0x8, addend: 0x0, symName: __ZNSt3__112basic_stringIcNS_11char_traitsIcEENS_9allocatorIcEEE13__fits_in_ssoB7v160006Em, symObjAddr: 0x3948, symBinAddr: 0x100007304, symSize: 0x20 }
  - { offsetInCU: 0xDEF1, offset: 0xDEF1, size: 0x8, addend: 0x0, symName: __ZNSt3__117__compressed_pairINS_12basic_stringIcNS_11char_traitsIcEENS_9allocatorIcEEE5__repES5_E5firstB7v160006Ev, symObjAddr: 0x3968, symBinAddr: 0x100007324, symSize: 0x24 }
  - { offsetInCU: 0xDF17, offset: 0xDF17, size: 0x8, addend: 0x0, symName: __ZNSt3__112basic_stringIcNS_11char_traitsIcEENS_9allocatorIcEEE16__set_short_sizeB7v160006Em, symObjAddr: 0x398C, symBinAddr: 0x100007348, symSize: 0x78 }
  - { offsetInCU: 0xDF4C, offset: 0xDF4C, size: 0x8, addend: 0x0, symName: __ZNSt3__112basic_stringIcNS_11char_traitsIcEENS_9allocatorIcEEE11__recommendB7v160006Em, symObjAddr: 0x3A04, symBinAddr: 0x1000073C0, symSize: 0x84 }
  - { offsetInCU: 0xDF7F, offset: 0xDF7F, size: 0x8, addend: 0x0, symName: __ZNSt3__116allocator_traitsINS_9allocatorIcEEE8allocateB7v160006ERS2_m, symObjAddr: 0x3A88, symBinAddr: 0x100007444, symSize: 0x2C }
  - { offsetInCU: 0xDFB2, offset: 0xDFB2, size: 0x8, addend: 0x0, symName: __ZNSt3__112basic_stringIcNS_11char_traitsIcEENS_9allocatorIcEEE7__allocB7v160006Ev, symObjAddr: 0x3AB4, symBinAddr: 0x100007470, symSize: 0x24 }
  - { offsetInCU: 0xDFD8, offset: 0xDFD8, size: 0x8, addend: 0x0, symName: __ZNSt3__112basic_stringIcNS_11char_traitsIcEENS_9allocatorIcEEE16__begin_lifetimeB7v160006EPcm, symObjAddr: 0x3AD8, symBinAddr: 0x100007494, symSize: 0x14 }
  - { offsetInCU: 0xE00B, offset: 0xE00B, size: 0x8, addend: 0x0, symName: __ZNSt3__112basic_stringIcNS_11char_traitsIcEENS_9allocatorIcEEE14__set_long_capB7v160006Em, symObjAddr: 0x3AEC, symBinAddr: 0x1000074A8, symSize: 0x70 }
  - { offsetInCU: 0xE040, offset: 0xE040, size: 0x8, addend: 0x0, symName: __ZNSt3__112basic_stringIcNS_11char_traitsIcEENS_9allocatorIcEEE18__set_long_pointerB7v160006EPc, symObjAddr: 0x3B5C, symBinAddr: 0x100007518, symSize: 0x38 }
  - { offsetInCU: 0xE075, offset: 0xE075, size: 0x8, addend: 0x0, symName: __ZNSt3__112basic_stringIcNS_11char_traitsIcEENS_9allocatorIcEEE15__set_long_sizeB7v160006Em, symObjAddr: 0x3B94, symBinAddr: 0x100007550, symSize: 0x38 }
  - { offsetInCU: 0xE0AA, offset: 0xE0AA, size: 0x8, addend: 0x0, symName: __ZNSt3__117__compressed_pairINS_12basic_stringIcNS_11char_traitsIcEENS_9allocatorIcEEE5__repES5_EC2B7v160006INS_18__default_init_tagERKS5_EEOT_OT0_, symObjAddr: 0x3BCC, symBinAddr: 0x100007588, symSize: 0x40 }
  - { offsetInCU: 0xE102, offset: 0xE102, size: 0x8, addend: 0x0, symName: __ZNSt3__122__compressed_pair_elemINS_9allocatorIcEELi1ELb1EEC2B7v160006IRKS2_vEEOT_, symObjAddr: 0x3C0C, symBinAddr: 0x1000075C8, symSize: 0x18 }
  - { offsetInCU: 0xE144, offset: 0xE144, size: 0x8, addend: 0x0, symName: __ZNSt3__116allocator_traitsINS_9allocatorIcEEE8max_sizeB7v160006IS2_vEEmRKS2_, symObjAddr: 0x3C24, symBinAddr: 0x1000075E0, symSize: 0x24 }
  - { offsetInCU: 0xE172, offset: 0xE172, size: 0x8, addend: 0x0, symName: __ZNSt3__114numeric_limitsImE3maxB7v160006Ev, symObjAddr: 0x3C48, symBinAddr: 0x100007604, symSize: 0x14 }
  - { offsetInCU: 0xE186, offset: 0xE186, size: 0x8, addend: 0x0, symName: __ZNKSt3__19allocatorIcE8max_sizeB7v160006Ev, symObjAddr: 0x3C5C, symBinAddr: 0x100007618, symSize: 0x14 }
  - { offsetInCU: 0xE1AC, offset: 0xE1AC, size: 0x8, addend: 0x0, symName: __ZNSt3__123__libcpp_numeric_limitsImLb1EE3maxB7v160006Ev, symObjAddr: 0x3C70, symBinAddr: 0x10000762C, symSize: 0x8 }
  - { offsetInCU: 0xE1C0, offset: 0xE1C0, size: 0x8, addend: 0x0, symName: __ZNSt12length_errorC1B7v160006EPKc, symObjAddr: 0x3CDC, symBinAddr: 0x100007698, symSize: 0x34 }
  - { offsetInCU: 0xE1F8, offset: 0xE1F8, size: 0x8, addend: 0x0, symName: __ZNSt12length_errorC2B7v160006EPKc, symObjAddr: 0x3D10, symBinAddr: 0x1000076CC, symSize: 0x4C }
  - { offsetInCU: 0xE230, offset: 0xE230, size: 0x8, addend: 0x0, symName: __ZNSt3__122__compressed_pair_elemINS_12basic_stringIcNS_11char_traitsIcEENS_9allocatorIcEEE5__repELi0ELb0EE5__getB7v160006Ev, symObjAddr: 0x3D5C, symBinAddr: 0x100007718, symSize: 0x14 }
  - { offsetInCU: 0xE256, offset: 0xE256, size: 0x8, addend: 0x0, symName: __ZNSt3__112basic_stringIcNS_11char_traitsIcEENS_9allocatorIcEEE10__align_itB7v160006ILm16EEEmm, symObjAddr: 0x3D70, symBinAddr: 0x10000772C, symSize: 0x1C }
  - { offsetInCU: 0xE284, offset: 0xE284, size: 0x8, addend: 0x0, symName: __ZNSt3__19allocatorIcE8allocateB7v160006Em, symObjAddr: 0x3D8C, symBinAddr: 0x100007748, symSize: 0x58 }
  - { offsetInCU: 0xE2B8, offset: 0xE2B8, size: 0x8, addend: 0x0, symName: __ZNSt3__117__compressed_pairINS_12basic_stringIcNS_11char_traitsIcEENS_9allocatorIcEEE5__repES5_E6secondB7v160006Ev, symObjAddr: 0x3EC8, symBinAddr: 0x100007884, symSize: 0x24 }
  - { offsetInCU: 0xE2DE, offset: 0xE2DE, size: 0x8, addend: 0x0, symName: __ZNSt3__122__compressed_pair_elemINS_9allocatorIcEELi1ELb1EE5__getB7v160006Ev, symObjAddr: 0x3EEC, symBinAddr: 0x1000078A8, symSize: 0x14 }
  - { offsetInCU: 0xE304, offset: 0xE304, size: 0x8, addend: 0x0, symName: __ZNSt3__112basic_stringIcNS_11char_traitsIcEENS_9allocatorIcEEE18__get_long_pointerB7v160006Ev, symObjAddr: 0x3F00, symBinAddr: 0x1000078BC, symSize: 0x28 }
  - { offsetInCU: 0xE32A, offset: 0xE32A, size: 0x8, addend: 0x0, symName: __ZNSt3__112basic_stringIcNS_11char_traitsIcEENS_9allocatorIcEEE19__get_short_pointerB7v160006Ev, symObjAddr: 0x3F28, symBinAddr: 0x1000078E4, symSize: 0x28 }
  - { offsetInCU: 0xE350, offset: 0xE350, size: 0x8, addend: 0x0, symName: __ZNSt3__114pointer_traitsIPcE10pointer_toB7v160006ERc, symObjAddr: 0x3F50, symBinAddr: 0x10000790C, symSize: 0x14 }
  - { offsetInCU: 0xE396, offset: 0xE396, size: 0x8, addend: 0x0, symName: __ZNKSt3__114__copy_trivialclB7v160006IKccLi0EEENS_4pairIPT_PT0_EES5_S5_S7_, symObjAddr: 0x4184, symBinAddr: 0x100007B40, symSize: 0x48 }
  - { offsetInCU: 0xE41C, offset: 0xE41C, size: 0x8, addend: 0x0, symName: __ZNSt3__14pairIPKcS2_EC1B7v160006IS2_S2_LPv0EEEOT_OT0_, symObjAddr: 0x42EC, symBinAddr: 0x100007CA8, symSize: 0x3C }
  - { offsetInCU: 0xE47A, offset: 0xE47A, size: 0x8, addend: 0x0, symName: __ZNSt3__14pairIPKcS2_EC2B7v160006IS2_S2_LPv0EEEOT_OT0_, symObjAddr: 0x4328, symBinAddr: 0x100007CE4, symSize: 0x34 }
  - { offsetInCU: 0xE4D8, offset: 0xE4D8, size: 0x8, addend: 0x0, symName: __ZNSt3__118__unwrap_iter_implIPKcLb1EE8__unwrapB7v160006ES2_, symObjAddr: 0x435C, symBinAddr: 0x100007D18, symSize: 0x24 }
  - { offsetInCU: 0xE505, offset: 0xE505, size: 0x8, addend: 0x0, symName: __ZNSt3__14pairIPKcPcEC1B7v160006IRS2_S3_LPv0EEEOT_OT0_, symObjAddr: 0x4448, symBinAddr: 0x100007E04, symSize: 0x3C }
  - { offsetInCU: 0xE563, offset: 0xE563, size: 0x8, addend: 0x0, symName: __ZNSt3__14pairIPKcPcEC2B7v160006IRS2_S3_LPv0EEEOT_OT0_, symObjAddr: 0x4484, symBinAddr: 0x100007E40, symSize: 0x34 }
  - { offsetInCU: 0xE5C1, offset: 0xE5C1, size: 0x8, addend: 0x0, symName: __ZNSt3__118__unwrap_iter_implIPcLb1EE8__unwrapB7v160006ES1_, symObjAddr: 0x44B8, symBinAddr: 0x100007E74, symSize: 0x24 }
  - { offsetInCU: 0xE5E4, offset: 0xE5E4, size: 0x8, addend: 0x0, symName: __ZNSt3__14pairIPKcPcEC1B7v160006IS2_S3_LPv0EEEOT_OT0_, symObjAddr: 0x44DC, symBinAddr: 0x100007E98, symSize: 0x3C }
  - { offsetInCU: 0xE642, offset: 0xE642, size: 0x8, addend: 0x0, symName: __ZNSt3__14pairIPKcPcEC2B7v160006IS2_S3_LPv0EEEOT_OT0_, symObjAddr: 0x4518, symBinAddr: 0x100007ED4, symSize: 0x34 }
  - { offsetInCU: 0xE6A0, offset: 0xE6A0, size: 0x8, addend: 0x0, symName: __ZNSt3__118__unwrap_iter_implIPKcLb1EE8__rewrapB7v160006ES2_S2_, symObjAddr: 0x4588, symBinAddr: 0x100007F44, symSize: 0x48 }
  - { offsetInCU: 0xE6D1, offset: 0xE6D1, size: 0x8, addend: 0x0, symName: __ZNSt3__118__unwrap_iter_implIPcLb1EE8__rewrapB7v160006ES1_S1_, symObjAddr: 0x45D0, symBinAddr: 0x100007F8C, symSize: 0x48 }
  - { offsetInCU: 0xE702, offset: 0xE702, size: 0x8, addend: 0x0, symName: __ZNKSt3__112basic_stringIcNS_11char_traitsIcEENS_9allocatorIcEEE13__get_pointerB7v160006Ev, symObjAddr: 0x4618, symBinAddr: 0x100007FD4, symSize: 0x54 }
  - { offsetInCU: 0xE728, offset: 0xE728, size: 0x8, addend: 0x0, symName: __ZNKSt3__112basic_stringIcNS_11char_traitsIcEENS_9allocatorIcEEE18__get_long_pointerB7v160006Ev, symObjAddr: 0x466C, symBinAddr: 0x100008028, symSize: 0x28 }
  - { offsetInCU: 0xE74E, offset: 0xE74E, size: 0x8, addend: 0x0, symName: __ZNKSt3__112basic_stringIcNS_11char_traitsIcEENS_9allocatorIcEEE19__get_short_pointerB7v160006Ev, symObjAddr: 0x4694, symBinAddr: 0x100008050, symSize: 0x28 }
  - { offsetInCU: 0xE774, offset: 0xE774, size: 0x8, addend: 0x0, symName: __ZNSt3__114pointer_traitsIPKcE10pointer_toB7v160006ERS1_, symObjAddr: 0x46BC, symBinAddr: 0x100008078, symSize: 0x14 }
  - { offsetInCU: 0xE797, offset: 0xE797, size: 0x8, addend: 0x0, symName: __ZN5TokenC2Ec, symObjAddr: 0x478C, symBinAddr: 0x100008148, symSize: 0x3C }
  - { offsetInCU: 0xE7D4, offset: 0xE7D4, size: 0x8, addend: 0x0, symName: __ZN6StringaSERKS_, symObjAddr: 0x47C8, symBinAddr: 0x100008184, symSize: 0x34 }
  - { offsetInCU: 0xE805, offset: 0xE805, size: 0x8, addend: 0x0, symName: __ZN5TokenC2ERKS_, symObjAddr: 0x47FC, symBinAddr: 0x1000081B8, symSize: 0x48 }
  - { offsetInCU: 0xE83A, offset: 0xE83A, size: 0x8, addend: 0x0, symName: __ZN5TokenC2Ecd, symObjAddr: 0x4844, symBinAddr: 0x100008200, symSize: 0x48 }
  - { offsetInCU: 0xE87F, offset: 0xE87F, size: 0x8, addend: 0x0, symName: __Z8__istypeim, symObjAddr: 0x488C, symBinAddr: 0x100008248, symSize: 0x8C }
  - { offsetInCU: 0xE8B9, offset: 0xE8B9, size: 0x8, addend: 0x0, symName: __Z7isasciii, symObjAddr: 0x4918, symBinAddr: 0x1000082D4, symSize: 0x24 }
  - { offsetInCU: 0xE8E6, offset: 0xE8E6, size: 0x8, addend: 0x0, symName: __ZN6StringC2Ev, symObjAddr: 0x493C, symBinAddr: 0x1000082F8, symSize: 0x2C }
  - { offsetInCU: 0xE910, offset: 0xE910, size: 0x8, addend: 0x0, symName: __ZNSt3__112basic_stringIcNS_11char_traitsIcEENS_9allocatorIcEEEC2B7v160006Ev, symObjAddr: 0x4968, symBinAddr: 0x100008324, symSize: 0x50 }
  - { offsetInCU: 0xE93A, offset: 0xE93A, size: 0x8, addend: 0x0, symName: __ZNSt3__112basic_stringIcNS_11char_traitsIcEENS_9allocatorIcEEE14__default_initB7v160006Ev, symObjAddr: 0x49B8, symBinAddr: 0x100008374, symSize: 0x40 }
  - { offsetInCU: 0xE95F, offset: 0xE95F, size: 0x8, addend: 0x0, symName: __Z9__isctypeim, symObjAddr: 0x49F8, symBinAddr: 0x1000083B4, symSize: 0x80 }
  - { offsetInCU: 0xE99A, offset: 0xE99A, size: 0x8, addend: 0x0, symName: __ZN6StringC2ERKS_, symObjAddr: 0x4A78, symBinAddr: 0x100008434, symSize: 0x34 }
  - { offsetInCU: 0xE9CF, offset: 0xE9CF, size: 0x8, addend: 0x0, symName: __ZN5TokenC2Ec6String, symObjAddr: 0x4AAC, symBinAddr: 0x100008468, symSize: 0x4C }
  - { offsetInCU: 0xEA16, offset: 0xEA16, size: 0x8, addend: 0x0, symName: __ZN12Token_streamD2Ev, symObjAddr: 0x4AF8, symBinAddr: 0x1000084B4, symSize: 0x30 }
  - { offsetInCU: 0xEA42, offset: 0xEA42, size: 0x8, addend: 0x0, symName: __ZN8VariableD2Ev, symObjAddr: 0x4B28, symBinAddr: 0x1000084E4, symSize: 0x2C }
  - { offsetInCU: 0xEA6E, offset: 0xEA6E, size: 0x8, addend: 0x0, symName: __ZN5TokenD2Ev, symObjAddr: 0x4B54, symBinAddr: 0x100008510, symSize: 0x30 }
  - { offsetInCU: 0xEA9F, offset: 0xEA9F, size: 0x8, addend: 0x0, symName: __ZN6StringaSEOS_, symObjAddr: 0x4B84, symBinAddr: 0x100008540, symSize: 0x34 }
  - { offsetInCU: 0xEAD0, offset: 0xEAD0, size: 0x8, addend: 0x0, symName: __ZNSt3__112basic_stringIcNS_11char_traitsIcEENS_9allocatorIcEEEaSB7v160006EOS5_, symObjAddr: 0x4BB8, symBinAddr: 0x100008574, symSize: 0x34 }
  - { offsetInCU: 0xEB05, offset: 0xEB05, size: 0x8, addend: 0x0, symName: __ZNSt3__112basic_stringIcNS_11char_traitsIcEENS_9allocatorIcEEE13__move_assignB7v160006ERS5_NS_17integral_constantIbLb1EEE, symObjAddr: 0x4BEC, symBinAddr: 0x1000085A8, symSize: 0xC8 }
  - { offsetInCU: 0xEB48, offset: 0xEB48, size: 0x8, addend: 0x0, symName: __ZNSt3__116allocator_traitsINS_9allocatorIcEEE10deallocateB7v160006ERS2_Pcm, symObjAddr: 0x4CB4, symBinAddr: 0x100008670, symSize: 0x34 }
  - { offsetInCU: 0xEB8A, offset: 0xEB8A, size: 0x8, addend: 0x0, symName: __ZNKSt3__112basic_stringIcNS_11char_traitsIcEENS_9allocatorIcEEE14__get_long_capB7v160006Ev, symObjAddr: 0x4CE8, symBinAddr: 0x1000086A4, symSize: 0x30 }
  - { offsetInCU: 0xEBB0, offset: 0xEBB0, size: 0x8, addend: 0x0, symName: __ZNSt3__112basic_stringIcNS_11char_traitsIcEENS_9allocatorIcEEE19__move_assign_allocB7v160006ERS5_, symObjAddr: 0x4D18, symBinAddr: 0x1000086D4, symSize: 0x2C }
  - { offsetInCU: 0xEBE5, offset: 0xEBE5, size: 0x8, addend: 0x0, symName: __ZNSt3__111char_traitsIcE6assignERcRKc, symObjAddr: 0x4D44, symBinAddr: 0x100008700, symSize: 0x24 }
  - { offsetInCU: 0xEC16, offset: 0xEC16, size: 0x8, addend: 0x0, symName: __ZNSt3__19allocatorIcE10deallocateB7v160006EPcm, symObjAddr: 0x4D68, symBinAddr: 0x100008724, symSize: 0x40 }
  - { offsetInCU: 0xEC58, offset: 0xEC58, size: 0x8, addend: 0x0, symName: __ZNSt3__112basic_stringIcNS_11char_traitsIcEENS_9allocatorIcEEE19__move_assign_allocB7v160006ERS5_NS_17integral_constantIbLb1EEE, symObjAddr: 0x4DA8, symBinAddr: 0x100008764, symSize: 0x38 }
  - { offsetInCU: 0xEC99, offset: 0xEC99, size: 0x8, addend: 0x0, symName: __ZNSt3__19basic_iosIcNS_11char_traitsIcEEE5clearB7v160006Ej, symObjAddr: 0x4DE0, symBinAddr: 0x10000879C, symSize: 0x2C }
  - { offsetInCU: 0xECCE, offset: 0xECCE, size: 0x8, addend: 0x0, symName: __ZNSt3__112basic_stringIcNS_11char_traitsIcEENS_9allocatorIcEEEC1B7v160006Ev, symObjAddr: 0x4E0C, symBinAddr: 0x1000087C8, symSize: 0x2C }
  - { offsetInCU: 0xED16, offset: 0xED16, size: 0x8, addend: 0x0, symName: __ZNKSt3__113basic_istreamIcNS_11char_traitsIcEEE6sentrycvbB7v160006Ev, symObjAddr: 0x5188, symBinAddr: 0x100008B44, symSize: 0x1C }
  - { offsetInCU: 0xED3C, offset: 0xED3C, size: 0x8, addend: 0x0, symName: __ZNSt3__112basic_stringIcNS_11char_traitsIcEENS_9allocatorIcEEE5clearB7v160006Ev, symObjAddr: 0x51A4, symBinAddr: 0x100008B60, symSize: 0x88 }
  - { offsetInCU: 0xED64, offset: 0xED64, size: 0x8, addend: 0x0, symName: __ZNKSt3__18ios_base5widthB7v160006Ev, symObjAddr: 0x522C, symBinAddr: 0x100008BE8, symSize: 0x18 }
  - { offsetInCU: 0xED8C, offset: 0xED8C, size: 0x8, addend: 0x0, symName: __ZNSt3__114numeric_limitsIlE3maxB7v160006Ev, symObjAddr: 0x5244, symBinAddr: 0x100008C00, symSize: 0x14 }
  - { offsetInCU: 0xEDA0, offset: 0xEDA0, size: 0x8, addend: 0x0, symName: __ZNKSt3__19basic_iosIcNS_11char_traitsIcEEE5rdbufB7v160006Ev, symObjAddr: 0x5284, symBinAddr: 0x100008C40, symSize: 0x24 }
  - { offsetInCU: 0xEDC8, offset: 0xEDC8, size: 0x8, addend: 0x0, symName: __ZNSt3__115basic_streambufIcNS_11char_traitsIcEEE5sgetcB7v160006Ev, symObjAddr: 0x52A8, symBinAddr: 0x100008C64, symSize: 0x70 }
  - { offsetInCU: 0xEDEE, offset: 0xEDEE, size: 0x8, addend: 0x0, symName: __ZNSt3__111char_traitsIcE11eq_int_typeEii, symObjAddr: 0x5318, symBinAddr: 0x100008CD4, symSize: 0x28 }
  - { offsetInCU: 0xEE1F, offset: 0xEE1F, size: 0x8, addend: 0x0, symName: __ZNSt3__111char_traitsIcE3eofEv, symObjAddr: 0x5340, symBinAddr: 0x100008CFC, symSize: 0x8 }
  - { offsetInCU: 0xEE33, offset: 0xEE33, size: 0x8, addend: 0x0, symName: __ZNSt3__111char_traitsIcE12to_char_typeEi, symObjAddr: 0x5348, symBinAddr: 0x100008D04, symSize: 0x18 }
  - { offsetInCU: 0xEE83, offset: 0xEE83, size: 0x8, addend: 0x0, symName: __ZNKSt3__15ctypeIcE2isB7v160006Ejc, symObjAddr: 0x5360, symBinAddr: 0x100008D1C, symSize: 0x7C }
  - { offsetInCU: 0xEEC7, offset: 0xEEC7, size: 0x8, addend: 0x0, symName: __ZNSt3__115basic_streambufIcNS_11char_traitsIcEEE6sbumpcB7v160006Ev, symObjAddr: 0x53DC, symBinAddr: 0x100008D98, symSize: 0x78 }
  - { offsetInCU: 0xEEED, offset: 0xEEED, size: 0x8, addend: 0x0, symName: __ZNSt3__18ios_base5widthB7v160006El, symObjAddr: 0x5454, symBinAddr: 0x100008E10, symSize: 0x2C }
  - { offsetInCU: 0xEF33, offset: 0xEF33, size: 0x8, addend: 0x0, symName: __ZNSt3__18ios_base18__setstate_nothrowB7v160006Ej, symObjAddr: 0x5480, symBinAddr: 0x100008E3C, symSize: 0x64 }
  - { offsetInCU: 0xEF68, offset: 0xEF68, size: 0x8, addend: 0x0, symName: __ZNKSt3__19basic_iosIcNS_11char_traitsIcEEE10exceptionsB7v160006Ev, symObjAddr: 0x54E4, symBinAddr: 0x100008EA0, symSize: 0x24 }
  - { offsetInCU: 0xEF8E, offset: 0xEF8E, size: 0x8, addend: 0x0, symName: __ZNSt3__19basic_iosIcNS_11char_traitsIcEEE8setstateB7v160006Ej, symObjAddr: 0x5508, symBinAddr: 0x100008EC4, symSize: 0x2C }
  - { offsetInCU: 0xEFC3, offset: 0xEFC3, size: 0x8, addend: 0x0, symName: __ZNSt3__123__libcpp_numeric_limitsIlLb1EE3maxB7v160006Ev, symObjAddr: 0x5544, symBinAddr: 0x100008F00, symSize: 0x8 }
  - { offsetInCU: 0xEFD7, offset: 0xEFD7, size: 0x8, addend: 0x0, symName: __ZNKSt3__18ios_base5rdbufB7v160006Ev, symObjAddr: 0x554C, symBinAddr: 0x100008F08, symSize: 0x18 }
  - { offsetInCU: 0xEFFD, offset: 0xEFFD, size: 0x8, addend: 0x0, symName: __ZNSt3__111char_traitsIcE11to_int_typeEc, symObjAddr: 0x5564, symBinAddr: 0x100008F20, symSize: 0x14 }
  - { offsetInCU: 0xF020, offset: 0xF020, size: 0x8, addend: 0x0, symName: __ZNKSt3__18ios_base10exceptionsB7v160006Ev, symObjAddr: 0x5578, symBinAddr: 0x100008F34, symSize: 0x18 }
  - { offsetInCU: 0xF048, offset: 0xF048, size: 0x8, addend: 0x0, symName: __ZNSt3__18ios_base8setstateB7v160006Ej, symObjAddr: 0x5590, symBinAddr: 0x100008F4C, symSize: 0x34 }
  - { offsetInCU: 0xF09D, offset: 0xF09D, size: 0x8, addend: 0x0, symName: __ZNKSt3__113basic_ostreamIcNS_11char_traitsIcEEE6sentrycvbB7v160006Ev, symObjAddr: 0x57B0, symBinAddr: 0x10000916C, symSize: 0x1C }
  - { offsetInCU: 0xF0C3, offset: 0xF0C3, size: 0x8, addend: 0x0, symName: __ZNSt3__119ostreambuf_iteratorIcNS_11char_traitsIcEEEC1B7v160006ERNS_13basic_ostreamIcS2_EE, symObjAddr: 0x5A0C, symBinAddr: 0x1000093C8, symSize: 0x34 }
  - { offsetInCU: 0xF0FB, offset: 0xF0FB, size: 0x8, addend: 0x0, symName: __ZNKSt3__18ios_base5flagsB7v160006Ev, symObjAddr: 0x5A40, symBinAddr: 0x1000093FC, symSize: 0x18 }
  - { offsetInCU: 0xF123, offset: 0xF123, size: 0x8, addend: 0x0, symName: __ZNKSt3__19basic_iosIcNS_11char_traitsIcEEE4fillB7v160006Ev, symObjAddr: 0x5A58, symBinAddr: 0x100009414, symSize: 0x64 }
  - { offsetInCU: 0xF14B, offset: 0xF14B, size: 0x8, addend: 0x0, symName: __ZNKSt3__119ostreambuf_iteratorIcNS_11char_traitsIcEEE6failedB7v160006Ev, symObjAddr: 0x5ABC, symBinAddr: 0x100009478, symSize: 0x24 }
  - { offsetInCU: 0xF171, offset: 0xF171, size: 0x8, addend: 0x0, symName: __ZNSt3__115basic_streambufIcNS_11char_traitsIcEEE5sputnB7v160006EPKcl, symObjAddr: 0x5AE0, symBinAddr: 0x10000949C, symSize: 0x3C }
  - { offsetInCU: 0xF1B3, offset: 0xF1B3, size: 0x8, addend: 0x0, symName: __ZNSt3__112basic_stringIcNS_11char_traitsIcEENS_9allocatorIcEEEC1B7v160006Emc, symObjAddr: 0x5B1C, symBinAddr: 0x1000094D8, symSize: 0x3C }
  - { offsetInCU: 0xF1FB, offset: 0xF1FB, size: 0x8, addend: 0x0, symName: __ZNSt3__112basic_stringIcNS_11char_traitsIcEENS_9allocatorIcEEE4dataB7v160006Ev, symObjAddr: 0x5B58, symBinAddr: 0x100009514, symSize: 0x28 }
  - { offsetInCU: 0xF221, offset: 0xF221, size: 0x8, addend: 0x0, symName: __ZNSt3__112basic_stringIcNS_11char_traitsIcEENS_9allocatorIcEEEC2B7v160006Emc, symObjAddr: 0x5B80, symBinAddr: 0x10000953C, symSize: 0x54 }
  - { offsetInCU: 0xF269, offset: 0xF269, size: 0x8, addend: 0x0, symName: __ZNSt3__119ostreambuf_iteratorIcNS_11char_traitsIcEEEC2B7v160006ERNS_13basic_ostreamIcS2_EE, symObjAddr: 0x5BD4, symBinAddr: 0x100009590, symSize: 0x54 }
  - { offsetInCU: 0xF2A1, offset: 0xF2A1, size: 0x8, addend: 0x0, symName: __ZNKSt3__19basic_iosIcNS_11char_traitsIcEEE5widenB7v160006Ec, symObjAddr: 0x5C28, symBinAddr: 0x1000095E4, symSize: 0x84 }
  - { offsetInCU: 0xF2D8, offset: 0xF2D8, size: 0x8, addend: 0x0, symName: __ZNKSt3__15ctypeIcE5widenB7v160006Ec, symObjAddr: 0x5CAC, symBinAddr: 0x100009668, symSize: 0x38 }
  - { offsetInCU: 0xF30D, offset: 0xF30D, size: 0x8, addend: 0x0, symName: __ZNKSt3__19basic_iosIcNS_11char_traitsIcEEE4failB7v160006Ev, symObjAddr: 0x5CE4, symBinAddr: 0x1000096A0, symSize: 0x28 }
  - { offsetInCU: 0xF333, offset: 0xF333, size: 0x8, addend: 0x0, symName: __ZNKSt3__18ios_base4failB7v160006Ev, symObjAddr: 0x5D0C, symBinAddr: 0x1000096C8, symSize: 0x28 }
  - { offsetInCU: 0xF35B, offset: 0xF35B, size: 0x8, addend: 0x0, symName: __ZNSt3__16vectorI8VariableNS_9allocatorIS1_EEE11__make_iterB7v160006EPS1_, symObjAddr: 0x5D34, symBinAddr: 0x1000096F0, symSize: 0x34 }
  - { offsetInCU: 0xF390, offset: 0xF390, size: 0x8, addend: 0x0, symName: __ZNSt3__111__wrap_iterIP8VariableEC1B7v160006EPKvS2_, symObjAddr: 0x5D68, symBinAddr: 0x100009724, symSize: 0x3C }
  - { offsetInCU: 0xF3D6, offset: 0xF3D6, size: 0x8, addend: 0x0, symName: __ZNSt3__111__wrap_iterIP8VariableEC2B7v160006EPKvS2_, symObjAddr: 0x5DA4, symBinAddr: 0x100009760, symSize: 0x24 }
  - { offsetInCU: 0xF41C, offset: 0xF41C, size: 0x8, addend: 0x0, symName: __ZNSt3__111char_traitsIcE7compareEPKcS3_m, symObjAddr: 0x5DC8, symBinAddr: 0x100009784, symSize: 0x6C }
  - { offsetInCU: 0xF45B, offset: 0xF45B, size: 0x8, addend: 0x0, symName: __ZNSt3__16vectorI8VariableNS_9allocatorIS1_EEE9__end_capB7v160006Ev, symObjAddr: 0x5E68, symBinAddr: 0x100009824, symSize: 0x28 }
  - { offsetInCU: 0xF486, offset: 0xF486, size: 0x8, addend: 0x0, symName: __ZNSt3__16vectorI8VariableNS_9allocatorIS1_EEE22__construct_one_at_endB7v160006IJS1_EEEvDpOT_, symObjAddr: 0x5E90, symBinAddr: 0x10000984C, symSize: 0x90 }
  - { offsetInCU: 0xF4D5, offset: 0xF4D5, size: 0x8, addend: 0x0, symName: __ZNSt3__16vectorI8VariableNS_9allocatorIS1_EEE21__push_back_slow_pathIS1_EEvOT_, symObjAddr: 0x5F20, symBinAddr: 0x1000098DC, symSize: 0xD8 }
  - { offsetInCU: 0xF533, offset: 0xF533, size: 0x8, addend: 0x0, symName: __ZNSt3__117__compressed_pairIP8VariableNS_9allocatorIS1_EEE5firstB7v160006Ev, symObjAddr: 0x5FF8, symBinAddr: 0x1000099B4, symSize: 0x24 }
  - { offsetInCU: 0xF559, offset: 0xF559, size: 0x8, addend: 0x0, symName: __ZNSt3__122__compressed_pair_elemIP8VariableLi0ELb0EE5__getB7v160006Ev, symObjAddr: 0x601C, symBinAddr: 0x1000099D8, symSize: 0x14 }
  - { offsetInCU: 0xF598, offset: 0xF598, size: 0x8, addend: 0x0, symName: __ZNSt3__16vectorI8VariableNS_9allocatorIS1_EEE21_ConstructTransactionC1B7v160006ERS4_m, symObjAddr: 0x6030, symBinAddr: 0x1000099EC, symSize: 0x3C }
  - { offsetInCU: 0xF5E0, offset: 0xF5E0, size: 0x8, addend: 0x0, symName: __ZNSt3__116allocator_traitsINS_9allocatorI8VariableEEE9constructB7v160006IS2_JS2_EvEEvRS3_PT_DpOT0_, symObjAddr: 0x606C, symBinAddr: 0x100009A28, symSize: 0x34 }
  - { offsetInCU: 0xF637, offset: 0xF637, size: 0x8, addend: 0x0, symName: __ZNSt3__16vectorI8VariableNS_9allocatorIS1_EEE21_ConstructTransactionD1B7v160006Ev, symObjAddr: 0x60A0, symBinAddr: 0x100009A5C, symSize: 0x2C }
  - { offsetInCU: 0xF661, offset: 0xF661, size: 0x8, addend: 0x0, symName: __ZNSt3__16vectorI8VariableNS_9allocatorIS1_EEE21_ConstructTransactionC2B7v160006ERS4_m, symObjAddr: 0x60CC, symBinAddr: 0x100009A88, symSize: 0x44 }
  - { offsetInCU: 0xF6A9, offset: 0xF6A9, size: 0x8, addend: 0x0, symName: __ZNSt3__19allocatorI8VariableE9constructB7v160006IS1_JS1_EEEvPT_DpOT0_, symObjAddr: 0x6110, symBinAddr: 0x100009ACC, symSize: 0x30 }
  - { offsetInCU: 0xF6FF, offset: 0xF6FF, size: 0x8, addend: 0x0, symName: __ZN8VariableC1EOS_, symObjAddr: 0x6140, symBinAddr: 0x100009AFC, symSize: 0x34 }
  - { offsetInCU: 0xF734, offset: 0xF734, size: 0x8, addend: 0x0, symName: __ZN8VariableC2EOS_, symObjAddr: 0x6174, symBinAddr: 0x100009B30, symSize: 0x40 }
  - { offsetInCU: 0xF769, offset: 0xF769, size: 0x8, addend: 0x0, symName: __ZN6StringC1EOS_, symObjAddr: 0x61B4, symBinAddr: 0x100009B70, symSize: 0x34 }
  - { offsetInCU: 0xF79E, offset: 0xF79E, size: 0x8, addend: 0x0, symName: __ZN6StringC2EOS_, symObjAddr: 0x61E8, symBinAddr: 0x100009BA4, symSize: 0x34 }
  - { offsetInCU: 0xF7D3, offset: 0xF7D3, size: 0x8, addend: 0x0, symName: __ZNSt3__112basic_stringIcNS_11char_traitsIcEENS_9allocatorIcEEEC2B7v160006EOS5_, symObjAddr: 0x621C, symBinAddr: 0x100009BD8, symSize: 0x80 }
  - { offsetInCU: 0xF80C, offset: 0xF80C, size: 0x8, addend: 0x0, symName: __ZNSt3__16vectorI8VariableNS_9allocatorIS1_EEE21_ConstructTransactionD2B7v160006Ev, symObjAddr: 0x62B0, symBinAddr: 0x100009C6C, symSize: 0x20 }
  - { offsetInCU: 0xF836, offset: 0xF836, size: 0x8, addend: 0x0, symName: __ZNKSt3__16vectorI8VariableNS_9allocatorIS1_EEE11__recommendB7v160006Em, symObjAddr: 0x62D0, symBinAddr: 0x100009C8C, symSize: 0xB4 }
  - { offsetInCU: 0xF88B, offset: 0xF88B, size: 0x8, addend: 0x0, symName: __ZNSt3__114__split_bufferI8VariableRNS_9allocatorIS1_EEEC1EmmS4_, symObjAddr: 0x6384, symBinAddr: 0x100009D40, symSize: 0x44 }
  - { offsetInCU: 0xF8E1, offset: 0xF8E1, size: 0x8, addend: 0x0, symName: __ZNSt3__114__split_bufferI8VariableRNS_9allocatorIS1_EEED1Ev, symObjAddr: 0x64E0, symBinAddr: 0x100009E9C, symSize: 0x2C }
  - { offsetInCU: 0xF90D, offset: 0xF90D, size: 0x8, addend: 0x0, symName: __ZNKSt3__16vectorI8VariableNS_9allocatorIS1_EEE8max_sizeEv, symObjAddr: 0x650C, symBinAddr: 0x100009EC8, symSize: 0x60 }
  - { offsetInCU: 0xF935, offset: 0xF935, size: 0x8, addend: 0x0, symName: __ZNKSt3__16vectorI8VariableNS_9allocatorIS1_EEE20__throw_length_errorB7v160006Ev, symObjAddr: 0x656C, symBinAddr: 0x100009F28, symSize: 0x1C }
  - { offsetInCU: 0xF965, offset: 0xF965, size: 0x8, addend: 0x0, symName: __ZNSt3__116allocator_traitsINS_9allocatorI8VariableEEE8max_sizeB7v160006IS3_vEEmRKS3_, symObjAddr: 0x65E0, symBinAddr: 0x100009F9C, symSize: 0x24 }
  - { offsetInCU: 0xF993, offset: 0xF993, size: 0x8, addend: 0x0, symName: __ZNKSt3__16vectorI8VariableNS_9allocatorIS1_EEE7__allocB7v160006Ev, symObjAddr: 0x6604, symBinAddr: 0x100009FC0, symSize: 0x28 }
  - { offsetInCU: 0xF9CD, offset: 0xF9CD, size: 0x8, addend: 0x0, symName: __ZNKSt3__16__lessImmEclB7v160006ERKmS3_, symObjAddr: 0x6680, symBinAddr: 0x10000A03C, symSize: 0x34 }
  - { offsetInCU: 0xFA0F, offset: 0xFA0F, size: 0x8, addend: 0x0, symName: __ZNKSt3__19allocatorI8VariableE8max_sizeB7v160006Ev, symObjAddr: 0x66B4, symBinAddr: 0x10000A070, symSize: 0x14 }
  - { offsetInCU: 0xFA35, offset: 0xFA35, size: 0x8, addend: 0x0, symName: __ZNKSt3__117__compressed_pairIP8VariableNS_9allocatorIS1_EEE6secondB7v160006Ev, symObjAddr: 0x66C8, symBinAddr: 0x10000A084, symSize: 0x24 }
  - { offsetInCU: 0xFA5B, offset: 0xFA5B, size: 0x8, addend: 0x0, symName: __ZNKSt3__122__compressed_pair_elemINS_9allocatorI8VariableEELi1ELb1EE5__getB7v160006Ev, symObjAddr: 0x66EC, symBinAddr: 0x10000A0A8, symSize: 0x14 }
  - { offsetInCU: 0xFA81, offset: 0xFA81, size: 0x8, addend: 0x0, symName: __ZNSt3__114__split_bufferI8VariableRNS_9allocatorIS1_EEEC2EmmS4_, symObjAddr: 0x6754, symBinAddr: 0x10000A110, symSize: 0xD4 }
  - { offsetInCU: 0xFAF4, offset: 0xFAF4, size: 0x8, addend: 0x0, symName: __ZNSt3__117__compressed_pairIP8VariableRNS_9allocatorIS1_EEEC1B7v160006IDnS5_EEOT_OT0_, symObjAddr: 0x6828, symBinAddr: 0x10000A1E4, symSize: 0x3C }
  - { offsetInCU: 0xFB4C, offset: 0xFB4C, size: 0x8, addend: 0x0, symName: __ZNSt3__114__split_bufferI8VariableRNS_9allocatorIS1_EEE7__allocB7v160006Ev, symObjAddr: 0x68A4, symBinAddr: 0x10000A260, symSize: 0x28 }
  - { offsetInCU: 0xFB72, offset: 0xFB72, size: 0x8, addend: 0x0, symName: __ZNSt3__114__split_bufferI8VariableRNS_9allocatorIS1_EEE9__end_capB7v160006Ev, symObjAddr: 0x68CC, symBinAddr: 0x10000A288, symSize: 0x28 }
  - { offsetInCU: 0xFB98, offset: 0xFB98, size: 0x8, addend: 0x0, symName: __ZNSt3__117__compressed_pairIP8VariableRNS_9allocatorIS1_EEEC2B7v160006IDnS5_EEOT_OT0_, symObjAddr: 0x68F4, symBinAddr: 0x10000A2B0, symSize: 0x48 }
  - { offsetInCU: 0xFBF0, offset: 0xFBF0, size: 0x8, addend: 0x0, symName: __ZNSt3__122__compressed_pair_elemIRNS_9allocatorI8VariableEELi1ELb0EEC2B7v160006IS4_vEEOT_, symObjAddr: 0x693C, symBinAddr: 0x10000A2F8, symSize: 0x20 }
  - { offsetInCU: 0xFC32, offset: 0xFC32, size: 0x8, addend: 0x0, symName: __ZNSt3__19allocatorI8VariableE8allocateB7v160006Em, symObjAddr: 0x695C, symBinAddr: 0x10000A318, symSize: 0x58 }
  - { offsetInCU: 0xFC66, offset: 0xFC66, size: 0x8, addend: 0x0, symName: __ZNSt3__117__compressed_pairIP8VariableRNS_9allocatorIS1_EEE6secondB7v160006Ev, symObjAddr: 0x69B4, symBinAddr: 0x10000A370, symSize: 0x28 }
  - { offsetInCU: 0xFC8C, offset: 0xFC8C, size: 0x8, addend: 0x0, symName: __ZNSt3__122__compressed_pair_elemIRNS_9allocatorI8VariableEELi1ELb0EE5__getB7v160006Ev, symObjAddr: 0x69DC, symBinAddr: 0x10000A398, symSize: 0x18 }
  - { offsetInCU: 0xFCB2, offset: 0xFCB2, size: 0x8, addend: 0x0, symName: __ZNSt3__117__compressed_pairIP8VariableRNS_9allocatorIS1_EEE5firstB7v160006Ev, symObjAddr: 0x69F4, symBinAddr: 0x10000A3B0, symSize: 0x24 }
  - { offsetInCU: 0xFCD8, offset: 0xFCD8, size: 0x8, addend: 0x0, symName: __ZNSt3__116reverse_iteratorIP8VariableEC1B7v160006ES2_, symObjAddr: 0x6B44, symBinAddr: 0x10000A500, symSize: 0x34 }
  - { offsetInCU: 0xFD10, offset: 0xFD10, size: 0x8, addend: 0x0, symName: __ZNKSt3__116reverse_iteratorIP8VariableE4baseB7v160006Ev, symObjAddr: 0x6B78, symBinAddr: 0x10000A534, symSize: 0x18 }
  - { offsetInCU: 0xFD36, offset: 0xFD36, size: 0x8, addend: 0x0, symName: __ZNKSt3__16vectorI8VariableNS_9allocatorIS1_EEE14__annotate_newB7v160006Em, symObjAddr: 0x6BCC, symBinAddr: 0x10000A588, symSize: 0xAC }
  - { offsetInCU: 0xFD6B, offset: 0xFD6B, size: 0x8, addend: 0x0, symName: __ZNSt3__129_AllocatorDestroyRangeReverseINS_9allocatorI8VariableEENS_16reverse_iteratorIPS2_EEEC1B7v160006ERS3_RS6_S9_, symObjAddr: 0x6CD4, symBinAddr: 0x10000A690, symSize: 0x44 }
  - { offsetInCU: 0xFDC2, offset: 0xFDC2, size: 0x8, addend: 0x0, symName: __ZNKSt3__116reverse_iteratorIP8VariableEdeB7v160006Ev, symObjAddr: 0x6D84, symBinAddr: 0x10000A740, symSize: 0x28 }
  - { offsetInCU: 0xFDF6, offset: 0xFDF6, size: 0x8, addend: 0x0, symName: __ZNSt3__116reverse_iteratorIP8VariableEppB7v160006Ev, symObjAddr: 0x6DAC, symBinAddr: 0x10000A768, symSize: 0x20 }
  - { offsetInCU: 0xFE1C, offset: 0xFE1C, size: 0x8, addend: 0x0, symName: __ZNSt3__128__exception_guard_exceptionsINS_29_AllocatorDestroyRangeReverseINS_9allocatorI8VariableEENS_16reverse_iteratorIPS3_EEEEE10__completeB7v160006Ev, symObjAddr: 0x6DCC, symBinAddr: 0x10000A788, symSize: 0x1C }
  - { offsetInCU: 0xFE42, offset: 0xFE42, size: 0x8, addend: 0x0, symName: __ZNSt3__128__exception_guard_exceptionsINS_29_AllocatorDestroyRangeReverseINS_9allocatorI8VariableEENS_16reverse_iteratorIPS3_EEEEED1B7v160006Ev, symObjAddr: 0x6DE8, symBinAddr: 0x10000A7A4, symSize: 0x2C }
  - { offsetInCU: 0xFE6C, offset: 0xFE6C, size: 0x8, addend: 0x0, symName: __ZNSt3__128__exception_guard_exceptionsINS_29_AllocatorDestroyRangeReverseINS_9allocatorI8VariableEENS_16reverse_iteratorIPS3_EEEEEC1B7v160006ES8_, symObjAddr: 0x6E14, symBinAddr: 0x10000A7D0, symSize: 0x34 }
  - { offsetInCU: 0xFEA5, offset: 0xFEA5, size: 0x8, addend: 0x0, symName: __ZNSt3__128__exception_guard_exceptionsINS_29_AllocatorDestroyRangeReverseINS_9allocatorI8VariableEENS_16reverse_iteratorIPS3_EEEEEC2B7v160006ES8_, symObjAddr: 0x6E48, symBinAddr: 0x10000A804, symSize: 0x30 }
  - { offsetInCU: 0xFEDE, offset: 0xFEDE, size: 0x8, addend: 0x0, symName: __ZNSt3__129_AllocatorDestroyRangeReverseINS_9allocatorI8VariableEENS_16reverse_iteratorIPS2_EEEC2B7v160006ERS3_RS6_S9_, symObjAddr: 0x6E78, symBinAddr: 0x10000A834, symSize: 0x38 }
  - { offsetInCU: 0xFF3A, offset: 0xFF3A, size: 0x8, addend: 0x0, symName: __ZNSt3__119__to_address_helperINS_16reverse_iteratorIP8VariableEEvE6__callB7v160006ERKS4_, symObjAddr: 0x6EB0, symBinAddr: 0x10000A86C, symSize: 0x38 }
  - { offsetInCU: 0xFF5D, offset: 0xFF5D, size: 0x8, addend: 0x0, symName: __ZNKSt3__116reverse_iteratorIP8VariableEptB7v160006Ev, symObjAddr: 0x6EE8, symBinAddr: 0x10000A8A4, symSize: 0x24 }
  - { offsetInCU: 0xFF83, offset: 0xFF83, size: 0x8, addend: 0x0, symName: __ZNSt3__128__exception_guard_exceptionsINS_29_AllocatorDestroyRangeReverseINS_9allocatorI8VariableEENS_16reverse_iteratorIPS3_EEEEED2B7v160006Ev, symObjAddr: 0x6F0C, symBinAddr: 0x10000A8C8, symSize: 0x50 }
  - { offsetInCU: 0xFFAD, offset: 0xFFAD, size: 0x8, addend: 0x0, symName: __ZNKSt3__129_AllocatorDestroyRangeReverseINS_9allocatorI8VariableEENS_16reverse_iteratorIPS2_EEEclB7v160006Ev, symObjAddr: 0x6F5C, symBinAddr: 0x10000A918, symSize: 0xB4 }
  - { offsetInCU: 0xFFD4, offset: 0xFFD4, size: 0x8, addend: 0x0, symName: __ZNSt3__116reverse_iteratorINS0_IP8VariableEEEC1B7v160006ES3_, symObjAddr: 0x7080, symBinAddr: 0x10000AA3C, symSize: 0x3C }
  - { offsetInCU: 0x1000C, offset: 0x1000C, size: 0x8, addend: 0x0, symName: __ZNSt3__116reverse_iteratorINS0_IP8VariableEEEppB7v160006Ev, symObjAddr: 0x7140, symBinAddr: 0x10000AAFC, symSize: 0x30 }
  - { offsetInCU: 0x10032, offset: 0x10032, size: 0x8, addend: 0x0, symName: __ZNKSt3__116reverse_iteratorINS0_IP8VariableEEE4baseB7v160006Ev, symObjAddr: 0x7170, symBinAddr: 0x10000AB2C, symSize: 0x24 }
  - { offsetInCU: 0x1005D, offset: 0x1005D, size: 0x8, addend: 0x0, symName: __ZNSt3__119__to_address_helperINS_16reverse_iteratorINS1_IP8VariableEEEEvE6__callB7v160006ERKS5_, symObjAddr: 0x7194, symBinAddr: 0x10000AB50, symSize: 0x38 }
  - { offsetInCU: 0x10080, offset: 0x10080, size: 0x8, addend: 0x0, symName: __ZNKSt3__116reverse_iteratorINS0_IP8VariableEEEptB7v160006Ev, symObjAddr: 0x71CC, symBinAddr: 0x10000AB88, symSize: 0x24 }
  - { offsetInCU: 0x100A6, offset: 0x100A6, size: 0x8, addend: 0x0, symName: __ZNKSt3__116reverse_iteratorINS0_IP8VariableEEEdeB7v160006Ev, symObjAddr: 0x71F0, symBinAddr: 0x10000ABAC, symSize: 0x34 }
  - { offsetInCU: 0x100DA, offset: 0x100DA, size: 0x8, addend: 0x0, symName: __ZNSt3__116reverse_iteratorIP8VariableEmmB7v160006Ev, symObjAddr: 0x7224, symBinAddr: 0x10000ABE0, symSize: 0x20 }
  - { offsetInCU: 0x10100, offset: 0x10100, size: 0x8, addend: 0x0, symName: __ZNSt3__116reverse_iteratorINS0_IP8VariableEEEC2B7v160006ES3_, symObjAddr: 0x7244, symBinAddr: 0x10000AC00, symSize: 0x2C }
  - { offsetInCU: 0x10138, offset: 0x10138, size: 0x8, addend: 0x0, symName: __ZNSt3__116reverse_iteratorIP8VariableEC2B7v160006ES2_, symObjAddr: 0x7270, symBinAddr: 0x10000AC2C, symSize: 0x28 }
  - { offsetInCU: 0x10170, offset: 0x10170, size: 0x8, addend: 0x0, symName: __ZNSt3__114__split_bufferI8VariableRNS_9allocatorIS1_EEED2Ev, symObjAddr: 0x7298, symBinAddr: 0x10000AC54, symSize: 0x8C }
  - { offsetInCU: 0x1019C, offset: 0x1019C, size: 0x8, addend: 0x0, symName: __ZNSt3__114__split_bufferI8VariableRNS_9allocatorIS1_EEE5clearB7v160006Ev, symObjAddr: 0x7324, symBinAddr: 0x10000ACE0, symSize: 0x28 }
  - { offsetInCU: 0x101C2, offset: 0x101C2, size: 0x8, addend: 0x0, symName: __ZNKSt3__114__split_bufferI8VariableRNS_9allocatorIS1_EEE8capacityB7v160006Ev, symObjAddr: 0x734C, symBinAddr: 0x10000AD08, symSize: 0x40 }
  - { offsetInCU: 0x101E8, offset: 0x101E8, size: 0x8, addend: 0x0, symName: __ZNSt3__114__split_bufferI8VariableRNS_9allocatorIS1_EEE17__destruct_at_endB7v160006EPS1_, symObjAddr: 0x738C, symBinAddr: 0x10000AD48, symSize: 0x2C }
  - { offsetInCU: 0x1021C, offset: 0x1021C, size: 0x8, addend: 0x0, symName: __ZNSt3__114__split_bufferI8VariableRNS_9allocatorIS1_EEE17__destruct_at_endB7v160006EPS1_NS_17integral_constantIbLb0EEE, symObjAddr: 0x73B8, symBinAddr: 0x10000AD74, symSize: 0x80 }
  - { offsetInCU: 0x1025D, offset: 0x1025D, size: 0x8, addend: 0x0, symName: __ZNKSt3__114__split_bufferI8VariableRNS_9allocatorIS1_EEE9__end_capB7v160006Ev, symObjAddr: 0x7438, symBinAddr: 0x10000ADF4, symSize: 0x28 }
  - { offsetInCU: 0x10283, offset: 0x10283, size: 0x8, addend: 0x0, symName: __ZNKSt3__117__compressed_pairIP8VariableRNS_9allocatorIS1_EEE5firstB7v160006Ev, symObjAddr: 0x7460, symBinAddr: 0x10000AE1C, symSize: 0x24 }
...
